

Microchip MPLAB XC8 Assembler V2.35 build 20211206165544 
                                                                                               Wed Apr 27 22:42:41 2022

Microchip MPLAB XC8 C Compiler v2.35 (Free license) build 20211206165544 Og1 
     1                           	processor	16F887
     2                           	pagewidth 120
     3                           	opt	flic
     4                           	psect	cinit,global,class=CODE,merge=1,delta=2
     5                           	psect	bssBANK0,global,class=BANK0,space=1,delta=1,noexec
     6                           	psect	bssBANK1,global,class=BANK1,space=1,delta=1,noexec
     7                           	psect	cstackBANK1,global,class=BANK1,space=1,delta=1,noexec
     8                           	psect	cstackCOMMON,global,class=COMMON,space=1,delta=1,noexec
     9                           	psect	cstackBANK0,global,class=BANK0,space=1,delta=1,noexec
    10                           	psect	maintext,global,class=CODE,split=1,delta=2
    11                           	psect	text1,local,class=CODE,merge=1,delta=2
    12                           	psect	text2,local,class=CODE,merge=1,delta=2
    13                           	psect	intentry,global,class=CODE,delta=2
    14                           	psect	text3,local,class=CODE,merge=1,delta=2
    15                           	psect	text4,local,class=CODE,merge=1,delta=2,group=1
    16                           	psect	text5,local,class=CODE,merge=1,delta=2,group=1
    17                           	psect	text6,local,class=CODE,merge=1,delta=2,group=1
    18                           	psect	text7,local,class=CODE,merge=1,delta=2,group=1
    19                           	psect	text8,local,class=CODE,merge=1,delta=2,group=1
    20                           	psect	text9,local,class=CODE,merge=1,delta=2,group=1
    21                           	psect	idloc,global,abs,ovrld,class=IDLOC,space=5,delta=2,noexec
    22                           	psect	config,global,abs,ovrld,class=CONFIG,space=4,delta=2,noexec
    23                           	dabs	1,0x7E,2
    24  0000                     
    25                           ; Version 2.40
    26                           ; Generated 17/11/2021 GMT
    27                           ; 
    28                           ; Copyright © 2021, Microchip Technology Inc. and its subsidiaries ("Microchip")
    29                           ; All rights reserved.
    30                           ; 
    31                           ; This software is developed by Microchip Technology Inc. and its subsidiaries ("Microch
      +                          ip").
    32                           ; 
    33                           ; Redistribution and use in source and binary forms, with or without modification, are
    34                           ; permitted provided that the following conditions are met:
    35                           ; 
    36                           ;     1. Redistributions of source code must retain the above copyright notice, this lis
      +                          t of
    37                           ;        conditions and the following disclaimer.
    38                           ; 
    39                           ;     2. Redistributions in binary form must reproduce the above copyright notice, this 
      +                          list
    40                           ;        of conditions and the following disclaimer in the documentation and/or other
    41                           ;        materials provided with the distribution. Publication is not required when
    42                           ;        this file is used in an embedded application.
    43                           ; 
    44                           ;     3. Microchip's name may not be used to endorse or promote products derived from th
      +                          is
    45                           ;        software without specific prior written permission.
    46                           ; 
    47                           ; THIS SOFTWARE IS PROVIDED BY MICROCHIP "AS IS" AND ANY EXPRESS OR IMPLIED WARRANTIES,
    48                           ; INCLUDING, BUT NOT LIMITED TO, THE IMPLIED WARRANTIES OF MERCHANTABILITY AND FITNESS F
      +                          OR
    49                           ; PURPOSE ARE DISCLAIMED.  IN NO EVENT SHALL MICROCHIP BE LIABLE FOR ANY DIRECT, INDIREC
      +                          T,
    50                           ; INCIDENTAL, SPECIAL, EXEMPLARY, OR CONSEQUENTIAL DAMAGES (INCLUDING BUT NOT LIMITED TO
    51                           ; PROCUREMENT OF SUBSTITUTE GOODS OR SERVICES; LOSS OF USE, DATA OR PROFITS; OR BUSINESS
    52                           ; INTERRUPTION) HOWSOEVER CAUSED AND ON ANY THEORY OF LIABILITY, WHETHER IN CONTRACT, ST
      +                          RICT
    53                           ; LIABILITY, OR TORT (INCLUDING NEGLIGENCE OR OTHERWISE) ARISING IN ANY WAY OUT OF THE U
      +                          SE OF
    54                           ; THIS SOFTWARE, EVEN IF ADVISED OF THE POSSIBILITY OF SUCH DAMAGE.
    55                           ; 
    56                           ; 
    57                           ; Code-generator required, PIC16F887 Definitions
    58                           ; 
    59                           ; SFR Addresses
    60  0000                     	;# 
    61  0001                     	;# 
    62  0002                     	;# 
    63  0003                     	;# 
    64  0004                     	;# 
    65  0005                     	;# 
    66  0006                     	;# 
    67  0007                     	;# 
    68  0008                     	;# 
    69  0009                     	;# 
    70  000A                     	;# 
    71  000B                     	;# 
    72  000C                     	;# 
    73  000D                     	;# 
    74  000E                     	;# 
    75  000E                     	;# 
    76  000F                     	;# 
    77  0010                     	;# 
    78  0011                     	;# 
    79  0012                     	;# 
    80  0013                     	;# 
    81  0014                     	;# 
    82  0015                     	;# 
    83  0015                     	;# 
    84  0016                     	;# 
    85  0017                     	;# 
    86  0018                     	;# 
    87  0019                     	;# 
    88  001A                     	;# 
    89  001B                     	;# 
    90  001B                     	;# 
    91  001C                     	;# 
    92  001D                     	;# 
    93  001E                     	;# 
    94  001F                     	;# 
    95  0081                     	;# 
    96  0085                     	;# 
    97  0086                     	;# 
    98  0087                     	;# 
    99  0088                     	;# 
   100  0089                     	;# 
   101  008C                     	;# 
   102  008D                     	;# 
   103  008E                     	;# 
   104  008F                     	;# 
   105  0090                     	;# 
   106  0091                     	;# 
   107  0092                     	;# 
   108  0093                     	;# 
   109  0093                     	;# 
   110  0093                     	;# 
   111  0094                     	;# 
   112  0095                     	;# 
   113  0096                     	;# 
   114  0097                     	;# 
   115  0098                     	;# 
   116  0099                     	;# 
   117  009A                     	;# 
   118  009B                     	;# 
   119  009C                     	;# 
   120  009D                     	;# 
   121  009E                     	;# 
   122  009F                     	;# 
   123  0105                     	;# 
   124  0107                     	;# 
   125  0108                     	;# 
   126  0109                     	;# 
   127  010C                     	;# 
   128  010C                     	;# 
   129  010D                     	;# 
   130  010E                     	;# 
   131  010F                     	;# 
   132  0185                     	;# 
   133  0187                     	;# 
   134  0188                     	;# 
   135  0189                     	;# 
   136  018C                     	;# 
   137  018D                     	;# 
   138  0000                     	;# 
   139  0001                     	;# 
   140  0002                     	;# 
   141  0003                     	;# 
   142  0004                     	;# 
   143  0005                     	;# 
   144  0006                     	;# 
   145  0007                     	;# 
   146  0008                     	;# 
   147  0009                     	;# 
   148  000A                     	;# 
   149  000B                     	;# 
   150  000C                     	;# 
   151  000D                     	;# 
   152  000E                     	;# 
   153  000E                     	;# 
   154  000F                     	;# 
   155  0010                     	;# 
   156  0011                     	;# 
   157  0012                     	;# 
   158  0013                     	;# 
   159  0014                     	;# 
   160  0015                     	;# 
   161  0015                     	;# 
   162  0016                     	;# 
   163  0017                     	;# 
   164  0018                     	;# 
   165  0019                     	;# 
   166  001A                     	;# 
   167  001B                     	;# 
   168  001B                     	;# 
   169  001C                     	;# 
   170  001D                     	;# 
   171  001E                     	;# 
   172  001F                     	;# 
   173  0081                     	;# 
   174  0085                     	;# 
   175  0086                     	;# 
   176  0087                     	;# 
   177  0088                     	;# 
   178  0089                     	;# 
   179  008C                     	;# 
   180  008D                     	;# 
   181  008E                     	;# 
   182  008F                     	;# 
   183  0090                     	;# 
   184  0091                     	;# 
   185  0092                     	;# 
   186  0093                     	;# 
   187  0093                     	;# 
   188  0093                     	;# 
   189  0094                     	;# 
   190  0095                     	;# 
   191  0096                     	;# 
   192  0097                     	;# 
   193  0098                     	;# 
   194  0099                     	;# 
   195  009A                     	;# 
   196  009B                     	;# 
   197  009C                     	;# 
   198  009D                     	;# 
   199  009E                     	;# 
   200  009F                     	;# 
   201  0105                     	;# 
   202  0107                     	;# 
   203  0108                     	;# 
   204  0109                     	;# 
   205  010C                     	;# 
   206  010C                     	;# 
   207  010D                     	;# 
   208  010E                     	;# 
   209  010F                     	;# 
   210  0185                     	;# 
   211  0187                     	;# 
   212  0188                     	;# 
   213  0189                     	;# 
   214  018C                     	;# 
   215  018D                     	;# 
   216  000B                     _INTCONbits	set	11
   217  0012                     _T2CONbits	set	18
   218  001D                     _CCP2CON	set	29
   219  0017                     _CCP1CON	set	23
   220  0005                     _PORTA	set	5
   221  001D                     _CCP2CONbits	set	29
   222  001B                     _CCPR2L	set	27
   223  0017                     _CCP1CONbits	set	23
   224  0015                     _CCPR1L	set	21
   225  001E                     _ADRESH	set	30
   226  001F                     _ADCON0bits	set	31
   227  000C                     _PIR1bits	set	12
   228  008C                     _PIE1bits	set	140
   229  0092                     _PR2	set	146
   230  0087                     _TRISCbits	set	135
   231  009F                     _ADCON1bits	set	159
   232  008F                     _OSCCONbits	set	143
   233  0085                     _TRISA	set	133
   234  0189                     _ANSELH	set	393
   235  0188                     _ANSEL	set	392
   236                           
   237                           	psect	cinit
   238  0013                     start_initialization:	
   239                           ; #config settings
   240                           
   241  0013                     __initialization:
   242                           
   243                           ; Clear objects allocated to BANK0
   244  0013  1283               	bcf	3,5	;RP0=0, select bank0
   245  0014  1303               	bcf	3,6	;RP1=0, select bank0
   246  0015  01EF               	clrf	__pbssBANK0& (0+127)
   247                           
   248                           ; Clear objects allocated to BANK1
   249  0016  1683               	bsf	3,5	;RP0=1, select bank1
   250  0017  1303               	bcf	3,6	;RP1=0, select bank1
   251  0018  01B2               	clrf	__pbssBANK1& (0+127)
   252  0019  01B3               	clrf	(__pbssBANK1+1)& (0+127)
   253  001A  01B4               	clrf	(__pbssBANK1+2)& (0+127)
   254  001B  01B5               	clrf	(__pbssBANK1+3)& (0+127)
   255  001C                     end_of_initialization:	
   256                           ;End of C runtime variable initialization code
   257                           
   258  001C                     __end_of__initialization:
   259  001C  0183               	clrf	3
   260  001D  120A  158A  2C9A   	ljmp	_main	;jump to C main() function
   261                           
   262                           	psect	bssBANK0
   263  006F                     __pbssBANK0:
   264  006F                     _canal:
   265  006F                     	ds	1
   266                           
   267                           	psect	bssBANK1
   268  00B2                     __pbssBANK1:
   269  00B2                     _CCPR:
   270  00B2                     	ds	2
   271  00B4                     _LSbit:
   272  00B4                     	ds	1
   273  00B5                     _valor:
   274  00B5                     	ds	1
   275                           
   276                           	psect	cstackBANK1
   277  00A0                     __pcstackBANK1:
   278  00A0                     ??___fltol:
   279                           
   280                           ; 1 bytes @ 0x0
   281  00A0                     	ds	5
   282  00A5                     ?_map:
   283  00A5                     map@x0:	
   284                           ; 2 bytes @ 0x5
   285                           
   286                           
   287                           ; 1 bytes @ 0x5
   288  00A5                     	ds	1
   289  00A6                     map@x1:
   290                           
   291                           ; 1 bytes @ 0x6
   292  00A6                     	ds	1
   293  00A7                     map@y0:
   294                           
   295                           ; 2 bytes @ 0x7
   296  00A7                     	ds	2
   297  00A9                     map@y1:
   298                           
   299                           ; 2 bytes @ 0x9
   300  00A9                     	ds	2
   301  00AB                     ??_isr:
   302                           
   303                           ; 1 bytes @ 0xB
   304  00AB                     	ds	5
   305  00B0                     ??_setup:
   306  00B0                     ??_main:	
   307                           ; 1 bytes @ 0x10
   308                           
   309                           
   310                           ; 1 bytes @ 0x10
   311  00B0                     	ds	2
   312                           
   313                           	psect	cstackCOMMON
   314  0070                     __pcstackCOMMON:
   315  0070                     ?_setup:
   316  0070                     ?_isr:	
   317                           ; 1 bytes @ 0x0
   318                           
   319  0070                     ?_main:	
   320                           ; 1 bytes @ 0x0
   321                           
   322  0070                     ?__Umul8_16:	
   323                           ; 1 bytes @ 0x0
   324                           
   325  0070                     ?___xxtofl:	
   326                           ; 2 bytes @ 0x0
   327                           
   328  0070                     __Umul8_16@multiplicand:	
   329                           ; 4 bytes @ 0x0
   330                           
   331  0070                     ___xxtofl@val:	
   332                           ; 1 bytes @ 0x0
   333                           
   334                           
   335                           ; 4 bytes @ 0x0
   336  0070                     	ds	2
   337  0072                     ??__Umul8_16:
   338                           
   339                           ; 1 bytes @ 0x2
   340  0072                     	ds	2
   341  0074                     ??___xxtofl:
   342  0074                     __Umul8_16@product:	
   343                           ; 1 bytes @ 0x4
   344                           
   345                           
   346                           ; 2 bytes @ 0x4
   347  0074                     	ds	2
   348  0076                     __Umul8_16@word_mpld:
   349                           
   350                           ; 2 bytes @ 0x6
   351  0076                     	ds	2
   352  0078                     __Umul8_16@multiplier:
   353  0078                     ___xxtofl@sign:	
   354                           ; 1 bytes @ 0x8
   355                           
   356                           
   357                           ; 1 bytes @ 0x8
   358  0078                     	ds	1
   359  0079                     ___xxtofl@exp:
   360                           
   361                           ; 1 bytes @ 0x9
   362  0079                     	ds	1
   363  007A                     ___xxtofl@arg:
   364                           
   365                           ; 4 bytes @ 0xA
   366  007A                     	ds	4
   367  007E                     ??_map:
   368                           
   369                           	psect	cstackBANK0
   370  0020                     __pcstackBANK0:	
   371                           ; 1 bytes @ 0xE
   372                           
   373  0020                     ?___fldiv:
   374  0020                     ___fldiv@a:	
   375                           ; 4 bytes @ 0x0
   376                           
   377                           
   378                           ; 4 bytes @ 0x0
   379  0020                     	ds	4
   380  0024                     ___fldiv@b:
   381                           
   382                           ; 4 bytes @ 0x4
   383  0024                     	ds	4
   384  0028                     ??___fldiv:
   385                           
   386                           ; 1 bytes @ 0x8
   387  0028                     	ds	5
   388  002D                     ___fldiv@rem:
   389                           
   390                           ; 4 bytes @ 0xD
   391  002D                     	ds	4
   392  0031                     ___fldiv@sign:
   393                           
   394                           ; 1 bytes @ 0x11
   395  0031                     	ds	1
   396  0032                     ___fldiv@new_exp:
   397                           
   398                           ; 2 bytes @ 0x12
   399  0032                     	ds	2
   400  0034                     ___fldiv@grs:
   401                           
   402                           ; 4 bytes @ 0x14
   403  0034                     	ds	4
   404  0038                     ___fldiv@bexp:
   405                           
   406                           ; 1 bytes @ 0x18
   407  0038                     	ds	1
   408  0039                     ___fldiv@aexp:
   409                           
   410                           ; 1 bytes @ 0x19
   411  0039                     	ds	1
   412  003A                     ?___flmul:
   413  003A                     ___flmul@b:	
   414                           ; 4 bytes @ 0x1A
   415                           
   416                           
   417                           ; 4 bytes @ 0x1A
   418  003A                     	ds	4
   419  003E                     ___flmul@a:
   420                           
   421                           ; 4 bytes @ 0x1E
   422  003E                     	ds	4
   423  0042                     ??___flmul:
   424                           
   425                           ; 1 bytes @ 0x22
   426  0042                     	ds	5
   427  0047                     ___flmul@sign:
   428                           
   429                           ; 1 bytes @ 0x27
   430  0047                     	ds	1
   431  0048                     ___flmul@grs:
   432                           
   433                           ; 4 bytes @ 0x28
   434  0048                     	ds	4
   435  004C                     ___flmul@aexp:
   436                           
   437                           ; 1 bytes @ 0x2C
   438  004C                     	ds	1
   439  004D                     ___flmul@bexp:
   440                           
   441                           ; 1 bytes @ 0x2D
   442  004D                     	ds	1
   443  004E                     ___flmul@prod:
   444                           
   445                           ; 4 bytes @ 0x2E
   446  004E                     	ds	4
   447  0052                     ___flmul@temp:
   448                           
   449                           ; 2 bytes @ 0x32
   450  0052                     	ds	2
   451  0054                     ?___fladd:
   452  0054                     ___fladd@b:	
   453                           ; 4 bytes @ 0x34
   454                           
   455                           
   456                           ; 4 bytes @ 0x34
   457  0054                     	ds	4
   458  0058                     ___fladd@a:
   459                           
   460                           ; 4 bytes @ 0x38
   461  0058                     	ds	4
   462  005C                     ??___fladd:
   463                           
   464                           ; 1 bytes @ 0x3C
   465  005C                     	ds	8
   466  0064                     ___fladd@signs:
   467                           
   468                           ; 1 bytes @ 0x44
   469  0064                     	ds	1
   470  0065                     ___fladd@aexp:
   471                           
   472                           ; 1 bytes @ 0x45
   473  0065                     	ds	1
   474  0066                     ___fladd@bexp:
   475                           
   476                           ; 1 bytes @ 0x46
   477  0066                     	ds	1
   478  0067                     ___fladd@grs:
   479                           
   480                           ; 1 bytes @ 0x47
   481  0067                     	ds	1
   482  0068                     ?___fltol:
   483  0068                     ___fltol@f1:	
   484                           ; 4 bytes @ 0x48
   485                           
   486                           
   487                           ; 4 bytes @ 0x48
   488  0068                     	ds	4
   489  006C                     ___fltol@sign1:
   490                           
   491                           ; 1 bytes @ 0x4C
   492  006C                     	ds	1
   493  006D                     ___fltol@exp1:
   494                           
   495                           ; 1 bytes @ 0x4D
   496  006D                     	ds	1
   497  006E                     map@x:
   498                           
   499                           ; 1 bytes @ 0x4E
   500  006E                     	ds	1
   501                           
   502                           	psect	maintext
   503  0C9A                     __pmaintext:	
   504 ;;
   505 ;;Main: autosize = 0, tempsize = 2, incstack = 0, save=0
   506 ;;
   507 ;; *************** function _main *****************
   508 ;; Defined at:
   509 ;;		line 80 in file "mainL9.c"
   510 ;; Parameters:    Size  Location     Type
   511 ;;		None
   512 ;; Auto vars:     Size  Location     Type
   513 ;;		None
   514 ;; Return value:  Size  Location     Type
   515 ;;                  1    wreg      void 
   516 ;; Registers used:
   517 ;;		wreg, fsr0l, fsr0h, status,2, status,0, pclath, cstack
   518 ;; Tracked objects:
   519 ;;		On entry : B00/0
   520 ;;		On exit  : 0/0
   521 ;;		Unchanged: 0/0
   522 ;; Data sizes:     COMMON   BANK0   BANK1   BANK3   BANK2
   523 ;;      Params:         0       0       0       0       0
   524 ;;      Locals:         0       0       0       0       0
   525 ;;      Temps:          0       0       2       0       0
   526 ;;      Totals:         0       0       2       0       0
   527 ;;Total ram usage:        2 bytes
   528 ;; Hardware stack levels required when called: 5
   529 ;; This function calls:
   530 ;;		_setup
   531 ;; This function is called by:
   532 ;;		Startup code after reset
   533 ;; This function uses a non-reentrant model
   534 ;;
   535                           
   536  0C9A                     _main:	
   537                           ;psect for function _main
   538                           
   539  0C9A                     l2037:	
   540                           ;incstack = 0
   541                           ; Regs used in _main: [wreg-fsr0h+status,2+status,0+pclath+cstack]
   542                           
   543                           
   544                           ;mainL9.c: 81:     setup();
   545  0C9A  120A  158A  24E8  120A  158A  	fcall	_setup
   546  0C9F                     l2039:
   547                           
   548                           ;mainL9.c: 83:         if(ADCON0bits.GO == 0){
   549  0C9F  1283               	bcf	3,5	;RP0=0, select bank0
   550  0CA0  1303               	bcf	3,6	;RP1=0, select bank0
   551  0CA1  189F               	btfsc	31,1	;volatile
   552  0CA2  2CA4               	goto	u2901
   553  0CA3  2CA5               	goto	u2900
   554  0CA4                     u2901:
   555  0CA4  2C9F               	goto	l2039
   556  0CA5                     u2900:
   557  0CA5                     l2041:
   558                           
   559                           ;mainL9.c: 89:             canal = ADCON0bits.CHS;
   560  0CA5  0C1F               	rrf	31,w	;volatile
   561  0CA6  1683               	bsf	3,5	;RP0=1, select bank1
   562  0CA7  1303               	bcf	3,6	;RP1=0, select bank1
   563  0CA8  00B0               	movwf	??_main^(0+128)
   564  0CA9  0C30               	rrf	??_main^(0+128),w
   565  0CAA  390F               	andlw	15
   566  0CAB  00B1               	movwf	(??_main+1)^(0+128)
   567  0CAC  0831               	movf	(??_main+1)^(0+128),w
   568  0CAD  1283               	bcf	3,5	;RP0=0, select bank0
   569  0CAE  1303               	bcf	3,6	;RP1=0, select bank0
   570  0CAF  00EF               	movwf	_canal
   571                           
   572                           ;mainL9.c: 90:             switch(canal){
   573  0CB0  2CCC               	goto	l2059
   574  0CB1                     l2043:
   575                           
   576                           ;mainL9.c: 92:                     ADCON0bits.CHS = 1;
   577  0CB1  1283               	bcf	3,5	;RP0=0, select bank0
   578  0CB2  1303               	bcf	3,6	;RP1=0, select bank0
   579  0CB3  081F               	movf	31,w	;volatile
   580  0CB4  39C3               	andlw	-61
   581  0CB5  3804               	iorlw	4
   582  0CB6  009F               	movwf	31	;volatile
   583  0CB7                     l2045:
   584                           
   585                           ;mainL9.c: 93:                     _delay((unsigned long)((40)*(500000/4000000.0)));
   586  0CB7  2CB8               	nop2	;2 cycle nop
   587  0CB8  2CB9               	nop2	;2 cycle nop
   588  0CB9  0000               	nop
   589                           
   590                           ;mainL9.c: 94:                     break;
   591  0CBA  2CE1               	goto	l74
   592  0CBB                     l2047:
   593                           
   594                           ;mainL9.c: 96:                     ADCON0bits.CHS = 4;
   595  0CBB  1283               	bcf	3,5	;RP0=0, select bank0
   596  0CBC  1303               	bcf	3,6	;RP1=0, select bank0
   597  0CBD  081F               	movf	31,w	;volatile
   598  0CBE  39C3               	andlw	-61
   599  0CBF  3810               	iorlw	16
   600  0CC0  009F               	movwf	31	;volatile
   601  0CC1  2CB7               	goto	l2045
   602  0CC2                     l2051:
   603                           
   604                           ;mainL9.c: 100:                     ADCON0bits.CHS = 0;
   605  0CC2  30C3               	movlw	-61
   606  0CC3  1283               	bcf	3,5	;RP0=0, select bank0
   607  0CC4  1303               	bcf	3,6	;RP1=0, select bank0
   608  0CC5  059F               	andwf	31,f	;volatile
   609  0CC6  2CB7               	goto	l2045
   610  0CC7                     l2055:
   611                           
   612                           ;mainL9.c: 104:                     ADCON0bits.CHS = 0;
   613  0CC7  30C3               	movlw	-61
   614  0CC8  1283               	bcf	3,5	;RP0=0, select bank0
   615  0CC9  1303               	bcf	3,6	;RP1=0, select bank0
   616  0CCA  059F               	andwf	31,f	;volatile
   617  0CCB  2CB7               	goto	l2045
   618  0CCC                     l2059:
   619  0CCC  086F               	movf	_canal,w
   620  0CCD  1683               	bsf	3,5	;RP0=1, select bank1
   621  0CCE  1303               	bcf	3,6	;RP1=0, select bank1
   622  0CCF  00B0               	movwf	??_main^(0+128)
   623  0CD0  01B1               	clrf	(??_main^(0+128)+1)
   624                           
   625                           ; Switch on 2 bytes has been partitioned into a top level switch of size 1, and 1 sub-sw
      +                          itches
   626                           ; Switch size 1, requested type "simple"
   627                           ; Number of cases is 1, Range of values is 0 to 0
   628                           ; switch strategies available:
   629                           ; Name         Instructions Cycles
   630                           ; simple_byte            4     3 (average)
   631                           ; direct_byte           11     8 (fixed)
   632                           ; jumptable            260     6 (fixed)
   633                           ;	Chosen strategy is simple_byte
   634  0CD1  0831               	movf	(??_main+1)^(0+128),w
   635  0CD2  3A00               	xorlw	0	; case 0
   636  0CD3  1903               	skipnz
   637  0CD4  2CD6               	goto	l2085
   638  0CD5  2CC7               	goto	l2055
   639  0CD6                     l2085:
   640                           
   641                           ; Switch size 1, requested type "simple"
   642                           ; Number of cases is 3, Range of values is 0 to 4
   643                           ; switch strategies available:
   644                           ; Name         Instructions Cycles
   645                           ; simple_byte           10     6 (average)
   646                           ; direct_byte           23     8 (fixed)
   647                           ; jumptable            260     6 (fixed)
   648                           ;	Chosen strategy is simple_byte
   649  0CD6  0830               	movf	??_main^(0+128),w
   650  0CD7  3A00               	xorlw	0	; case 0
   651  0CD8  1903               	skipnz
   652  0CD9  2CB1               	goto	l2043
   653  0CDA  3A01               	xorlw	1	; case 1
   654  0CDB  1903               	skipnz
   655  0CDC  2CBB               	goto	l2047
   656  0CDD  3A05               	xorlw	5	; case 4
   657  0CDE  1903               	skipnz
   658  0CDF  2CC2               	goto	l2051
   659  0CE0  2CC7               	goto	l2055
   660  0CE1                     l74:
   661                           
   662                           ;mainL9.c: 107:             ADCON0bits.GO = 1;
   663  0CE1  1283               	bcf	3,5	;RP0=0, select bank0
   664  0CE2  1303               	bcf	3,6	;RP1=0, select bank0
   665  0CE3  149F               	bsf	31,1	;volatile
   666  0CE4  2C9F               	goto	l2039
   667  0CE5  120A  118A  2810   	ljmp	start
   668  0CE8                     __end_of_main:
   669                           
   670                           	psect	text1
   671  0CE8                     __ptext1:	
   672 ;; *************** function _setup *****************
   673 ;; Defined at:
   674 ;;		line 114 in file "mainL9.c"
   675 ;; Parameters:    Size  Location     Type
   676 ;;		None
   677 ;; Auto vars:     Size  Location     Type
   678 ;;		None
   679 ;; Return value:  Size  Location     Type
   680 ;;                  1    wreg      void 
   681 ;; Registers used:
   682 ;;		wreg, status,2, status,0
   683 ;; Tracked objects:
   684 ;;		On entry : 0/0
   685 ;;		On exit  : 0/0
   686 ;;		Unchanged: 0/0
   687 ;; Data sizes:     COMMON   BANK0   BANK1   BANK3   BANK2
   688 ;;      Params:         0       0       0       0       0
   689 ;;      Locals:         0       0       0       0       0
   690 ;;      Temps:          0       0       0       0       0
   691 ;;      Totals:         0       0       0       0       0
   692 ;;Total ram usage:        0 bytes
   693 ;; Hardware stack levels used: 1
   694 ;; Hardware stack levels required when called: 4
   695 ;; This function calls:
   696 ;;		Nothing
   697 ;; This function is called by:
   698 ;;		_main
   699 ;; This function uses a non-reentrant model
   700 ;;
   701                           
   702  0CE8                     _setup:	
   703                           ;psect for function _setup
   704                           
   705  0CE8                     l1957:	
   706                           ;incstack = 0
   707                           ; Regs used in _setup: [wreg+status,2+status,0]
   708                           
   709                           
   710                           ;mainL9.c: 115:     ANSEL = 0b00100011;
   711  0CE8  3023               	movlw	35
   712  0CE9  1683               	bsf	3,5	;RP0=1, select bank3
   713  0CEA  1703               	bsf	3,6	;RP1=1, select bank3
   714  0CEB  0088               	movwf	8	;volatile
   715  0CEC                     l1959:
   716                           
   717                           ;mainL9.c: 116:     ANSELH = 0;
   718  0CEC  0189               	clrf	9	;volatile
   719  0CED                     l1961:
   720                           
   721                           ;mainL9.c: 117:     TRISA = 0b00100011;
   722  0CED  3023               	movlw	35
   723  0CEE  1683               	bsf	3,5	;RP0=1, select bank1
   724  0CEF  1303               	bcf	3,6	;RP1=0, select bank1
   725  0CF0  0085               	movwf	5	;volatile
   726                           
   727                           ;mainL9.c: 118:     PORTA = 0;
   728  0CF1  1283               	bcf	3,5	;RP0=0, select bank0
   729  0CF2  1303               	bcf	3,6	;RP1=0, select bank0
   730  0CF3  0185               	clrf	5	;volatile
   731  0CF4                     l1963:
   732                           
   733                           ;mainL9.c: 121:     OSCCONbits.IRCF = 0b011;
   734  0CF4  1683               	bsf	3,5	;RP0=1, select bank1
   735  0CF5  1303               	bcf	3,6	;RP1=0, select bank1
   736  0CF6  080F               	movf	15,w	;volatile
   737  0CF7  398F               	andlw	-113
   738  0CF8  3830               	iorlw	48
   739  0CF9  008F               	movwf	15	;volatile
   740  0CFA                     l1965:
   741                           
   742                           ;mainL9.c: 122:     OSCCONbits.SCS = 1;
   743  0CFA  140F               	bsf	15,0	;volatile
   744  0CFB                     l1967:
   745                           
   746                           ;mainL9.c: 125:     ADCON0bits.ADCS = 0b01;
   747  0CFB  1283               	bcf	3,5	;RP0=0, select bank0
   748  0CFC  1303               	bcf	3,6	;RP1=0, select bank0
   749  0CFD  081F               	movf	31,w	;volatile
   750  0CFE  393F               	andlw	-193
   751  0CFF  3840               	iorlw	64
   752  0D00  009F               	movwf	31	;volatile
   753  0D01                     l1969:
   754                           
   755                           ;mainL9.c: 126:     ADCON1bits.VCFG0 = 0;
   756  0D01  1683               	bsf	3,5	;RP0=1, select bank1
   757  0D02  1303               	bcf	3,6	;RP1=0, select bank1
   758  0D03  121F               	bcf	31,4	;volatile
   759  0D04                     l1971:
   760                           
   761                           ;mainL9.c: 127:     ADCON1bits.VCFG1 = 0;
   762  0D04  129F               	bcf	31,5	;volatile
   763  0D05                     l1973:
   764                           
   765                           ;mainL9.c: 128:     ADCON0bits.CHS = 0b0000;
   766  0D05  30C3               	movlw	-61
   767  0D06  1283               	bcf	3,5	;RP0=0, select bank0
   768  0D07  1303               	bcf	3,6	;RP1=0, select bank0
   769  0D08  059F               	andwf	31,f	;volatile
   770  0D09                     l1975:
   771                           
   772                           ;mainL9.c: 129:     ADCON1bits.ADFM = 0;
   773  0D09  1683               	bsf	3,5	;RP0=1, select bank1
   774  0D0A  1303               	bcf	3,6	;RP1=0, select bank1
   775  0D0B  139F               	bcf	31,7	;volatile
   776  0D0C                     l1977:
   777                           
   778                           ;mainL9.c: 130:     ADCON0bits.ADON = 1;
   779  0D0C  1283               	bcf	3,5	;RP0=0, select bank0
   780  0D0D  1303               	bcf	3,6	;RP1=0, select bank0
   781  0D0E  141F               	bsf	31,0	;volatile
   782  0D0F                     l1979:
   783                           
   784                           ;mainL9.c: 131:     _delay((unsigned long)((40)*(500000/4000000.0)));
   785  0D0F  2D10               	nop2	;2 cycle nop
   786  0D10  2D11               	nop2	;2 cycle nop
   787  0D11  0000               	nop
   788  0D12                     l1981:
   789                           
   790                           ;mainL9.c: 134:     TRISCbits.TRISC2 = 1;
   791  0D12  1683               	bsf	3,5	;RP0=1, select bank1
   792  0D13  1303               	bcf	3,6	;RP1=0, select bank1
   793  0D14  1507               	bsf	7,2	;volatile
   794  0D15                     l1983:
   795                           
   796                           ;mainL9.c: 135:     TRISCbits.TRISC1 = 1;
   797  0D15  1487               	bsf	7,1	;volatile
   798  0D16                     l1985:
   799                           
   800                           ;mainL9.c: 136:     PR2 = 155;
   801  0D16  309B               	movlw	155
   802  0D17  0092               	movwf	18	;volatile
   803  0D18                     l1987:
   804                           
   805                           ;mainL9.c: 139:     CCP1CON = 0;
   806  0D18  1283               	bcf	3,5	;RP0=0, select bank0
   807  0D19  1303               	bcf	3,6	;RP1=0, select bank0
   808  0D1A  0197               	clrf	23	;volatile
   809  0D1B                     l1989:
   810                           
   811                           ;mainL9.c: 140:     CCP1CONbits.P1M = 0;
   812  0D1B  303F               	movlw	-193
   813  0D1C  0597               	andwf	23,f	;volatile
   814  0D1D                     l1991:
   815                           
   816                           ;mainL9.c: 141:     CCP1CONbits.CCP1M = 0b1100;
   817  0D1D  0817               	movf	23,w	;volatile
   818  0D1E  39F0               	andlw	-16
   819  0D1F  380C               	iorlw	12
   820  0D20  0097               	movwf	23	;volatile
   821  0D21                     l1993:
   822                           
   823                           ;mainL9.c: 142:     CCP2CON = 0;
   824  0D21  019D               	clrf	29	;volatile
   825  0D22                     l1995:
   826                           
   827                           ;mainL9.c: 143:     CCP2CONbits.CCP2M = 0b1100;
   828  0D22  081D               	movf	29,w	;volatile
   829  0D23  39F0               	andlw	-16
   830  0D24  380C               	iorlw	12
   831  0D25  009D               	movwf	29	;volatile
   832  0D26                     l1997:
   833                           
   834                           ;mainL9.c: 145:     CCPR1L = 63>>2;
   835  0D26  300F               	movlw	15
   836  0D27  0095               	movwf	21	;volatile
   837  0D28                     l1999:
   838                           
   839                           ;mainL9.c: 146:     CCP1CONbits.DC1B = 63 & 0b11;
   840  0D28  3030               	movlw	48
   841  0D29  0497               	iorwf	23,f	;volatile
   842  0D2A                     l2001:
   843                           
   844                           ;mainL9.c: 147:     CCPR2L = 63>>2;
   845  0D2A  300F               	movlw	15
   846  0D2B  009B               	movwf	27	;volatile
   847  0D2C                     l2003:
   848                           
   849                           ;mainL9.c: 148:     CCP2CONbits.DC2B0 = 1;
   850  0D2C  161D               	bsf	29,4	;volatile
   851  0D2D                     l2005:
   852                           
   853                           ;mainL9.c: 149:     CCP2CONbits.DC2B1 = 1;
   854  0D2D  169D               	bsf	29,5	;volatile
   855  0D2E                     l2007:
   856                           
   857                           ;mainL9.c: 151:     PIR1bits.TMR2IF = 0;
   858  0D2E  108C               	bcf	12,1	;volatile
   859  0D2F                     l2009:
   860                           
   861                           ;mainL9.c: 152:     T2CONbits.T2CKPS = 0b11;
   862  0D2F  3003               	movlw	3
   863  0D30  0492               	iorwf	18,f	;volatile
   864  0D31                     l2011:
   865                           
   866                           ;mainL9.c: 153:     T2CONbits.TMR2ON = 1;
   867  0D31  1512               	bsf	18,2	;volatile
   868  0D32                     l83:	
   869                           ;mainL9.c: 154:     while(!PIR1bits.TMR2IF);
   870                           
   871  0D32  1C8C               	btfss	12,1	;volatile
   872  0D33  2D35               	goto	u2851
   873  0D34  2D36               	goto	u2850
   874  0D35                     u2851:
   875  0D35  2D32               	goto	l83
   876  0D36                     u2850:
   877  0D36                     l85:
   878                           
   879                           ;mainL9.c: 155:     PIR1bits.TMR2IF = 0;
   880  0D36  108C               	bcf	12,1	;volatile
   881                           
   882                           ;mainL9.c: 157:     TRISCbits.TRISC2 = 0;
   883  0D37  1683               	bsf	3,5	;RP0=1, select bank1
   884  0D38  1303               	bcf	3,6	;RP1=0, select bank1
   885  0D39  1107               	bcf	7,2	;volatile
   886                           
   887                           ;mainL9.c: 158:     TRISCbits.TRISC1 = 0;
   888  0D3A  1087               	bcf	7,1	;volatile
   889                           
   890                           ;mainL9.c: 160:     PIR1bits.ADIF = 0;
   891  0D3B  1283               	bcf	3,5	;RP0=0, select bank0
   892  0D3C  1303               	bcf	3,6	;RP1=0, select bank0
   893  0D3D  130C               	bcf	12,6	;volatile
   894                           
   895                           ;mainL9.c: 161:     PIE1bits.ADIE = 1;
   896  0D3E  1683               	bsf	3,5	;RP0=1, select bank1
   897  0D3F  1303               	bcf	3,6	;RP1=0, select bank1
   898  0D40  170C               	bsf	12,6	;volatile
   899                           
   900                           ;mainL9.c: 162:     INTCONbits.PEIE = 1;
   901  0D41  170B               	bsf	11,6	;volatile
   902                           
   903                           ;mainL9.c: 163:     INTCONbits.GIE = 1;
   904  0D42  178B               	bsf	11,7	;volatile
   905  0D43                     l86:
   906  0D43  0008               	return
   907  0D44                     __end_of_setup:
   908                           
   909                           	psect	text2
   910  0E92                     __ptext2:	
   911 ;; *************** function _isr *****************
   912 ;; Defined at:
   913 ;;		line 54 in file "mainL9.c"
   914 ;; Parameters:    Size  Location     Type
   915 ;;		None
   916 ;; Auto vars:     Size  Location     Type
   917 ;;		None
   918 ;; Return value:  Size  Location     Type
   919 ;;                  1    wreg      void 
   920 ;; Registers used:
   921 ;;		wreg, status,2, status,0, btemp+1, pclath, cstack
   922 ;; Tracked objects:
   923 ;;		On entry : 0/0
   924 ;;		On exit  : 0/0
   925 ;;		Unchanged: 0/0
   926 ;; Data sizes:     COMMON   BANK0   BANK1   BANK3   BANK2
   927 ;;      Params:         0       0       0       0       0
   928 ;;      Locals:         0       0       0       0       0
   929 ;;      Temps:          0       0       5       0       0
   930 ;;      Totals:         0       0       5       0       0
   931 ;;Total ram usage:        5 bytes
   932 ;; Hardware stack levels used: 1
   933 ;; Hardware stack levels required when called: 3
   934 ;; This function calls:
   935 ;;		_map
   936 ;; This function is called by:
   937 ;;		Interrupt level 1
   938 ;; This function uses a non-reentrant model
   939 ;;
   940                           
   941  0E92                     _isr:	
   942                           ;psect for function _isr
   943                           
   944  0E92                     i1l2013:
   945                           
   946                           ;mainL9.c: 55:     if(PIR1bits.ADIF){
   947  0E92  1283               	bcf	3,5	;RP0=0, select bank0
   948  0E93  1303               	bcf	3,6	;RP1=0, select bank0
   949  0E94  1F0C               	btfss	12,6	;volatile
   950  0E95  2E97               	goto	u286_21
   951  0E96  2E98               	goto	u286_20
   952  0E97                     u286_21:
   953  0E97  2F3B               	goto	i1l65
   954  0E98                     u286_20:
   955  0E98                     i1l2015:
   956                           
   957                           ;mainL9.c: 56:         if(ADCON0bits.CHS == 0){
   958  0E98  0C1F               	rrf	31,w	;volatile
   959  0E99  1683               	bsf	3,5	;RP0=1, select bank1
   960  0E9A  1303               	bcf	3,6	;RP1=0, select bank1
   961  0E9B  00AB               	movwf	??_isr^(0+128)
   962  0E9C  0C2B               	rrf	??_isr^(0+128),w
   963  0E9D  390F               	andlw	15
   964  0E9E  3A00               	xorlw	0
   965  0E9F  1D03               	skipz
   966  0EA0  2EA2               	goto	u287_21
   967  0EA1  2EA3               	goto	u287_20
   968  0EA2                     u287_21:
   969  0EA2  2EDE               	goto	i1l2023
   970  0EA3                     u287_20:
   971  0EA3                     i1l2017:
   972                           
   973                           ;mainL9.c: 57:             CCPR = map(ADRESH, 0, 255, 31, 63);
   974  0EA3  01A5               	clrf	map@x0^(0+128)
   975  0EA4  30FF               	movlw	255
   976  0EA5  00AB               	movwf	??_isr^(0+128)
   977  0EA6  082B               	movf	??_isr^(0+128),w
   978  0EA7  00A6               	movwf	map@x1^(0+128)
   979  0EA8  301F               	movlw	31
   980  0EA9  00A7               	movwf	map@y0^(0+128)
   981  0EAA  3000               	movlw	0
   982  0EAB  00A8               	movwf	(map@y0^(0+128)+1)
   983  0EAC  303F               	movlw	63
   984  0EAD  00A9               	movwf	map@y1^(0+128)
   985  0EAE  3000               	movlw	0
   986  0EAF  00AA               	movwf	(map@y1^(0+128)+1)
   987  0EB0  1283               	bcf	3,5	;RP0=0, select bank0
   988  0EB1  1303               	bcf	3,6	;RP1=0, select bank0
   989  0EB2  081E               	movf	30,w	;volatile
   990  0EB3  120A  158A  25E0  120A  158A  	fcall	_map
   991  0EB8  1683               	bsf	3,5	;RP0=1, select bank1
   992  0EB9  1303               	bcf	3,6	;RP1=0, select bank1
   993  0EBA  0826               	movf	(?_map+1)^(0+128),w
   994  0EBB  00B3               	movwf	(_CCPR+1)^(0+128)
   995  0EBC  0825               	movf	?_map^(0+128),w
   996  0EBD  00B2               	movwf	_CCPR^(0+128)
   997  0EBE                     i1l2019:
   998                           
   999                           ;mainL9.c: 58:             CCPR1L = (uint8_t)(CCPR>>2);
  1000  0EBE  0833               	movf	(_CCPR+1)^(0+128),w
  1001  0EBF  00AC               	movwf	(??_isr^(0+128)+1)
  1002  0EC0  0832               	movf	_CCPR^(0+128),w
  1003  0EC1  00AB               	movwf	??_isr^(0+128)
  1004  0EC2  1003               	clrc
  1005  0EC3  0CAC               	rrf	(??_isr^(0+128)+1),f
  1006  0EC4  0CAB               	rrf	??_isr^(0+128),f
  1007  0EC5  1003               	clrc
  1008  0EC6  0CAC               	rrf	(??_isr^(0+128)+1),f
  1009  0EC7  0CAB               	rrf	??_isr^(0+128),f
  1010  0EC8  082B               	movf	??_isr^(0+128),w
  1011  0EC9  1283               	bcf	3,5	;RP0=0, select bank0
  1012  0ECA  1303               	bcf	3,6	;RP1=0, select bank0
  1013  0ECB  0095               	movwf	21	;volatile
  1014  0ECC                     i1l2021:
  1015                           
  1016                           ;mainL9.c: 59:             CCP1CONbits.DC1B = CCPR & 0b11;
  1017  0ECC  1683               	bsf	3,5	;RP0=1, select bank1
  1018  0ECD  1303               	bcf	3,6	;RP1=0, select bank1
  1019  0ECE  0832               	movf	_CCPR^(0+128),w
  1020  0ECF  3903               	andlw	3
  1021  0ED0  00AB               	movwf	??_isr^(0+128)
  1022  0ED1  0EAB               	swapf	??_isr^(0+128),f
  1023  0ED2  1283               	bcf	3,5	;RP0=0, select bank0
  1024  0ED3  1303               	bcf	3,6	;RP1=0, select bank0
  1025  0ED4  0817               	movf	23,w	;volatile
  1026  0ED5  1683               	bsf	3,5	;RP0=1, select bank1
  1027  0ED6  1303               	bcf	3,6	;RP1=0, select bank1
  1028  0ED7  062B               	xorwf	??_isr^(0+128),w
  1029  0ED8  39CF               	andlw	-49
  1030  0ED9  062B               	xorwf	??_isr^(0+128),w
  1031  0EDA  1283               	bcf	3,5	;RP0=0, select bank0
  1032  0EDB  1303               	bcf	3,6	;RP1=0, select bank0
  1033  0EDC  0097               	movwf	23	;volatile
  1034                           
  1035                           ;mainL9.c: 60:         }
  1036  0EDD  2F39               	goto	i1l61
  1037  0EDE                     i1l2023:
  1038  0EDE  1283               	bcf	3,5	;RP0=0, select bank0
  1039  0EDF  1303               	bcf	3,6	;RP1=0, select bank0
  1040  0EE0  0C1F               	rrf	31,w	;volatile
  1041  0EE1  1683               	bsf	3,5	;RP0=1, select bank1
  1042  0EE2  1303               	bcf	3,6	;RP1=0, select bank1
  1043  0EE3  00AB               	movwf	??_isr^(0+128)
  1044  0EE4  0C2B               	rrf	??_isr^(0+128),w
  1045  0EE5  390F               	andlw	15
  1046  0EE6  3A01               	xorlw	1
  1047  0EE7  1D03               	skipz
  1048  0EE8  2EEA               	goto	u288_21
  1049  0EE9  2EEB               	goto	u288_20
  1050  0EEA                     u288_21:
  1051  0EEA  2F39               	goto	i1l61
  1052  0EEB                     u288_20:
  1053  0EEB                     i1l2025:
  1054                           
  1055                           ;mainL9.c: 62:             CCPR = map(ADRESH, 0, 255, 31, 63);
  1056  0EEB  01A5               	clrf	map@x0^(0+128)
  1057  0EEC  30FF               	movlw	255
  1058  0EED  00AB               	movwf	??_isr^(0+128)
  1059  0EEE  082B               	movf	??_isr^(0+128),w
  1060  0EEF  00A6               	movwf	map@x1^(0+128)
  1061  0EF0  301F               	movlw	31
  1062  0EF1  00A7               	movwf	map@y0^(0+128)
  1063  0EF2  3000               	movlw	0
  1064  0EF3  00A8               	movwf	(map@y0^(0+128)+1)
  1065  0EF4  303F               	movlw	63
  1066  0EF5  00A9               	movwf	map@y1^(0+128)
  1067  0EF6  3000               	movlw	0
  1068  0EF7  00AA               	movwf	(map@y1^(0+128)+1)
  1069  0EF8  1283               	bcf	3,5	;RP0=0, select bank0
  1070  0EF9  1303               	bcf	3,6	;RP1=0, select bank0
  1071  0EFA  081E               	movf	30,w	;volatile
  1072  0EFB  120A  158A  25E0  120A  158A  	fcall	_map
  1073  0F00  1683               	bsf	3,5	;RP0=1, select bank1
  1074  0F01  1303               	bcf	3,6	;RP1=0, select bank1
  1075  0F02  0826               	movf	(?_map+1)^(0+128),w
  1076  0F03  00B3               	movwf	(_CCPR+1)^(0+128)
  1077  0F04  0825               	movf	?_map^(0+128),w
  1078  0F05  00B2               	movwf	_CCPR^(0+128)
  1079  0F06                     i1l2027:
  1080                           
  1081                           ;mainL9.c: 63:             CCPR2L = (uint8_t)(CCPR>>2);
  1082  0F06  0833               	movf	(_CCPR+1)^(0+128),w
  1083  0F07  00AC               	movwf	(??_isr^(0+128)+1)
  1084  0F08  0832               	movf	_CCPR^(0+128),w
  1085  0F09  00AB               	movwf	??_isr^(0+128)
  1086  0F0A  1003               	clrc
  1087  0F0B  0CAC               	rrf	(??_isr^(0+128)+1),f
  1088  0F0C  0CAB               	rrf	??_isr^(0+128),f
  1089  0F0D  1003               	clrc
  1090  0F0E  0CAC               	rrf	(??_isr^(0+128)+1),f
  1091  0F0F  0CAB               	rrf	??_isr^(0+128),f
  1092  0F10  082B               	movf	??_isr^(0+128),w
  1093  0F11  1283               	bcf	3,5	;RP0=0, select bank0
  1094  0F12  1303               	bcf	3,6	;RP1=0, select bank0
  1095  0F13  009B               	movwf	27	;volatile
  1096  0F14                     i1l2029:
  1097                           
  1098                           ;mainL9.c: 64:             CCP2CONbits.DC2B0 = CCPR & 0b1;
  1099  0F14  1683               	bsf	3,5	;RP0=1, select bank1
  1100  0F15  1303               	bcf	3,6	;RP1=0, select bank1
  1101  0F16  0832               	movf	_CCPR^(0+128),w
  1102  0F17  3901               	andlw	1
  1103  0F18  00AB               	movwf	??_isr^(0+128)
  1104  0F19  0EAB               	swapf	??_isr^(0+128),f
  1105  0F1A  1283               	bcf	3,5	;RP0=0, select bank0
  1106  0F1B  1303               	bcf	3,6	;RP1=0, select bank0
  1107  0F1C  081D               	movf	29,w	;volatile
  1108  0F1D  1683               	bsf	3,5	;RP0=1, select bank1
  1109  0F1E  1303               	bcf	3,6	;RP1=0, select bank1
  1110  0F1F  062B               	xorwf	??_isr^(0+128),w
  1111  0F20  39EF               	andlw	-17
  1112  0F21  062B               	xorwf	??_isr^(0+128),w
  1113  0F22  1283               	bcf	3,5	;RP0=0, select bank0
  1114  0F23  1303               	bcf	3,6	;RP1=0, select bank0
  1115  0F24  009D               	movwf	29	;volatile
  1116  0F25                     i1l2031:
  1117                           
  1118                           ;mainL9.c: 65:             LSbit = CCPR & 0b10;
  1119  0F25  1683               	bsf	3,5	;RP0=1, select bank1
  1120  0F26  1303               	bcf	3,6	;RP1=0, select bank1
  1121  0F27  0832               	movf	_CCPR^(0+128),w
  1122  0F28  3902               	andlw	2
  1123  0F29  00AB               	movwf	??_isr^(0+128)
  1124  0F2A  082B               	movf	??_isr^(0+128),w
  1125  0F2B  00B4               	movwf	_LSbit^(0+128)
  1126  0F2C                     i1l2033:
  1127                           
  1128                           ;mainL9.c: 66:             if (LSbit == 2)
  1129  0F2C  3002               	movlw	2
  1130  0F2D  0634               	xorwf	_LSbit^(0+128),w
  1131  0F2E  1D03               	btfss	3,2
  1132  0F2F  2F31               	goto	u289_21
  1133  0F30  2F32               	goto	u289_20
  1134  0F31                     u289_21:
  1135  0F31  2F36               	goto	i1l63
  1136  0F32                     u289_20:
  1137  0F32                     i1l2035:
  1138                           
  1139                           ;mainL9.c: 67:                 CCP2CONbits.DC2B1 = 1;
  1140  0F32  1283               	bcf	3,5	;RP0=0, select bank0
  1141  0F33  1303               	bcf	3,6	;RP1=0, select bank0
  1142  0F34  169D               	bsf	29,5	;volatile
  1143  0F35  2F39               	goto	i1l61
  1144  0F36                     i1l63:	
  1145                           ;mainL9.c: 68:             else
  1146                           
  1147                           
  1148                           ;mainL9.c: 69:                 CCP2CONbits.DC2B1 = 0;
  1149  0F36  1283               	bcf	3,5	;RP0=0, select bank0
  1150  0F37  1303               	bcf	3,6	;RP1=0, select bank0
  1151  0F38  129D               	bcf	29,5	;volatile
  1152  0F39                     i1l61:
  1153                           
  1154                           ;mainL9.c: 74:         PIR1bits.ADIF = 0;
  1155  0F39  1283               	bcf	3,5	;RP0=0, select bank0
  1156  0F3A  130C               	bcf	12,6	;volatile
  1157  0F3B                     i1l65:
  1158  0F3B  1683               	bsf	3,5	;RP0=1, select bank1
  1159  0F3C  1303               	bcf	3,6	;RP1=0, select bank1
  1160  0F3D  082F               	movf	(??_isr+4)^(0+128),w
  1161  0F3E  00FF               	movwf	btemp+1
  1162  0F3F  082E               	movf	(??_isr+3)^(0+128),w
  1163  0F40  008A               	movwf	10
  1164  0F41  0E2D               	swapf	(??_isr+2)^(0+128),w
  1165  0F42  0083               	movwf	3
  1166  0F43  0EFE               	swapf	btemp,f
  1167  0F44  0E7E               	swapf	btemp,w
  1168  0F45  0009               	retfie
  1169  0F46                     __end_of_isr:
  1170                           
  1171                           	psect	intentry
  1172  0004                     __pintentry:	
  1173                           ;incstack = 0
  1174                           ; Regs used in _isr: [wreg+status,2+status,0+btemp+1+pclath+cstack]
  1175                           
  1176  0004                     interrupt_function:
  1177  007E                     saved_w	set	btemp
  1178  0004  00FE               	movwf	btemp
  1179  0005  0E03               	swapf	3,w
  1180  0006  1683               	bsf	3,5	;RP0=1, select bank1
  1181  0007  1303               	bcf	3,6	;RP1=0, select bank1
  1182  0008  00AD               	movwf	(??_isr+2)^(0+128)
  1183  0009  080A               	movf	10,w
  1184  000A  00AE               	movwf	(??_isr+3)^(0+128)
  1185  000B  087F               	movf	btemp+1,w
  1186  000C  00AF               	movwf	(??_isr+4)^(0+128)
  1187  000D  120A  158A  2E92   	ljmp	_isr
  1188                           
  1189                           	psect	text3
  1190  0DE0                     __ptext3:	
  1191 ;; *************** function _map *****************
  1192 ;; Defined at:
  1193 ;;		line 167 in file "mainL9.c"
  1194 ;; Parameters:    Size  Location     Type
  1195 ;;  x               1    wreg     unsigned char 
  1196 ;;  x0              1    5[BANK1 ] unsigned char 
  1197 ;;  x1              1    6[BANK1 ] unsigned char 
  1198 ;;  y0              2    7[BANK1 ] unsigned short 
  1199 ;;  y1              2    9[BANK1 ] unsigned short 
  1200 ;; Auto vars:     Size  Location     Type
  1201 ;;  x               1   78[BANK0 ] unsigned char 
  1202 ;; Return value:  Size  Location     Type
  1203 ;;                  2    5[BANK1 ] unsigned short 
  1204 ;; Registers used:
  1205 ;;		wreg, status,2, status,0, btemp+1, pclath, cstack
  1206 ;; Tracked objects:
  1207 ;;		On entry : 0/0
  1208 ;;		On exit  : 0/0
  1209 ;;		Unchanged: 0/0
  1210 ;; Data sizes:     COMMON   BANK0   BANK1   BANK3   BANK2
  1211 ;;      Params:         0       0       6       0       0
  1212 ;;      Locals:         0       1       0       0       0
  1213 ;;      Temps:          0       0       0       0       0
  1214 ;;      Totals:         0       1       6       0       0
  1215 ;;Total ram usage:        7 bytes
  1216 ;; Hardware stack levels used: 1
  1217 ;; Hardware stack levels required when called: 2
  1218 ;; This function calls:
  1219 ;;		___fladd
  1220 ;;		___fldiv
  1221 ;;		___flmul
  1222 ;;		___fltol
  1223 ;;		___xxtofl
  1224 ;; This function is called by:
  1225 ;;		_isr
  1226 ;; This function uses a non-reentrant model
  1227 ;;
  1228                           
  1229  0DE0                     _map:	
  1230                           ;psect for function _map
  1231                           
  1232                           
  1233                           ;incstack = 0
  1234                           ; Regs used in _map: [wreg+status,2+status,0+btemp+1+pclath+cstack]
  1235                           ;map@x stored from wreg
  1236  0DE0  1283               	bcf	3,5	;RP0=0, select bank0
  1237  0DE1  1303               	bcf	3,6	;RP1=0, select bank0
  1238  0DE2  00EE               	movwf	map@x
  1239  0DE3                     i1l1953:
  1240                           
  1241                           ;mainL9.c: 167: unsigned short map(uint8_t x, uint8_t x0, uint8_t x1,;mainL9.c: 168:    
      +                                   unsigned short y0, unsigned short y1){;mainL9.c: 169:     return (unsigned shor
      +                          t)(y0+((float)(y1-y0)/(x1-x0))*(x-x0));
  1242  0DE3  1683               	bsf	3,5	;RP0=1, select bank1
  1243  0DE4  1303               	bcf	3,6	;RP1=0, select bank1
  1244  0DE5  0827               	movf	map@y0^(0+128),w
  1245  0DE6  00F0               	movwf	___xxtofl@val
  1246  0DE7  0828               	movf	(map@y0+1)^(0+128),w
  1247  0DE8  00F1               	movwf	___xxtofl@val+1
  1248  0DE9  01F2               	clrf	___xxtofl@val+2
  1249  0DEA  01F3               	clrf	___xxtofl@val+3
  1250  0DEB  3000               	movlw	0
  1251  0DEC  120A  158A  2746  120A  158A  	fcall	___xxtofl
  1252  0DF1  0873               	movf	?___xxtofl+3,w
  1253  0DF2  1283               	bcf	3,5	;RP0=0, select bank0
  1254  0DF3  1303               	bcf	3,6	;RP1=0, select bank0
  1255  0DF4  00DB               	movwf	___fladd@a+3
  1256  0DF5  0872               	movf	?___xxtofl+2,w
  1257  0DF6  00DA               	movwf	___fladd@a+2
  1258  0DF7  0871               	movf	?___xxtofl+1,w
  1259  0DF8  00D9               	movwf	___fladd@a+1
  1260  0DF9  0870               	movf	?___xxtofl,w
  1261  0DFA  00D8               	movwf	___fladd@a
  1262  0DFB  1683               	bsf	3,5	;RP0=1, select bank1
  1263  0DFC  1303               	bcf	3,6	;RP1=0, select bank1
  1264  0DFD  0827               	movf	map@y0^(0+128),w
  1265  0DFE  0229               	subwf	map@y1^(0+128),w
  1266  0DFF  00F0               	movwf	___xxtofl@val
  1267  0E00  0828               	movf	(map@y0+1)^(0+128),w
  1268  0E01  1C03               	skipc
  1269  0E02  0A28               	incf	(map@y0+1)^(0+128),w
  1270  0E03  022A               	subwf	(map@y1+1)^(0+128),w
  1271  0E04  00F1               	movwf	___xxtofl@val+1
  1272  0E05  01F2               	clrf	___xxtofl@val+2
  1273  0E06  01F3               	clrf	___xxtofl@val+3
  1274  0E07  3000               	movlw	0
  1275  0E08  120A  158A  2746  120A  158A  	fcall	___xxtofl
  1276  0E0D  0873               	movf	?___xxtofl+3,w
  1277  0E0E  1283               	bcf	3,5	;RP0=0, select bank0
  1278  0E0F  1303               	bcf	3,6	;RP1=0, select bank0
  1279  0E10  00A7               	movwf	___fldiv@b+3
  1280  0E11  0872               	movf	?___xxtofl+2,w
  1281  0E12  00A6               	movwf	___fldiv@b+2
  1282  0E13  0871               	movf	?___xxtofl+1,w
  1283  0E14  00A5               	movwf	___fldiv@b+1
  1284  0E15  0870               	movf	?___xxtofl,w
  1285  0E16  00A4               	movwf	___fldiv@b
  1286  0E17  1683               	bsf	3,5	;RP0=1, select bank1
  1287  0E18  1303               	bcf	3,6	;RP1=0, select bank1
  1288  0E19  0825               	movf	map@x0^(0+128),w
  1289  0E1A  0226               	subwf	map@x1^(0+128),w
  1290  0E1B  00F0               	movwf	___xxtofl@val
  1291  0E1C  01F1               	clrf	___xxtofl@val+1
  1292  0E1D  1C03               	skipc
  1293  0E1E  03F1               	decf	___xxtofl@val+1,f
  1294  0E1F  01F2               	clrf	___xxtofl@val+2
  1295  0E20  1BF1               	btfsc	___xxtofl@val+1,7
  1296  0E21  03F2               	decf	___xxtofl@val+2,f
  1297  0E22  0872               	movf	___xxtofl@val+2,w
  1298  0E23  00F3               	movwf	___xxtofl@val+3
  1299  0E24  3001               	movlw	1
  1300  0E25  120A  158A  2746  120A  158A  	fcall	___xxtofl
  1301  0E2A  0873               	movf	?___xxtofl+3,w
  1302  0E2B  1283               	bcf	3,5	;RP0=0, select bank0
  1303  0E2C  1303               	bcf	3,6	;RP1=0, select bank0
  1304  0E2D  00A3               	movwf	___fldiv@a+3
  1305  0E2E  0872               	movf	?___xxtofl+2,w
  1306  0E2F  00A2               	movwf	___fldiv@a+2
  1307  0E30  0871               	movf	?___xxtofl+1,w
  1308  0E31  00A1               	movwf	___fldiv@a+1
  1309  0E32  0870               	movf	?___xxtofl,w
  1310  0E33  00A0               	movwf	___fldiv@a
  1311  0E34  120A  118A  2609  120A  158A  	fcall	___fldiv
  1312  0E39  1283               	bcf	3,5	;RP0=0, select bank0
  1313  0E3A  1303               	bcf	3,6	;RP1=0, select bank0
  1314  0E3B  0823               	movf	?___fldiv+3,w
  1315  0E3C  00C1               	movwf	___flmul@a+3
  1316  0E3D  0822               	movf	?___fldiv+2,w
  1317  0E3E  00C0               	movwf	___flmul@a+2
  1318  0E3F  0821               	movf	?___fldiv+1,w
  1319  0E40  00BF               	movwf	___flmul@a+1
  1320  0E41  0820               	movf	?___fldiv,w
  1321  0E42  00BE               	movwf	___flmul@a
  1322  0E43  1683               	bsf	3,5	;RP0=1, select bank1
  1323  0E44  1303               	bcf	3,6	;RP1=0, select bank1
  1324  0E45  0825               	movf	map@x0^(0+128),w
  1325  0E46  1283               	bcf	3,5	;RP0=0, select bank0
  1326  0E47  1303               	bcf	3,6	;RP1=0, select bank0
  1327  0E48  026E               	subwf	map@x,w
  1328  0E49  00F0               	movwf	___xxtofl@val
  1329  0E4A  01F1               	clrf	___xxtofl@val+1
  1330  0E4B  1C03               	skipc
  1331  0E4C  03F1               	decf	___xxtofl@val+1,f
  1332  0E4D  01F2               	clrf	___xxtofl@val+2
  1333  0E4E  1BF1               	btfsc	___xxtofl@val+1,7
  1334  0E4F  03F2               	decf	___xxtofl@val+2,f
  1335  0E50  0872               	movf	___xxtofl@val+2,w
  1336  0E51  00F3               	movwf	___xxtofl@val+3
  1337  0E52  3001               	movlw	1
  1338  0E53  120A  158A  2746  120A  158A  	fcall	___xxtofl
  1339  0E58  0873               	movf	?___xxtofl+3,w
  1340  0E59  1283               	bcf	3,5	;RP0=0, select bank0
  1341  0E5A  1303               	bcf	3,6	;RP1=0, select bank0
  1342  0E5B  00BD               	movwf	___flmul@b+3
  1343  0E5C  0872               	movf	?___xxtofl+2,w
  1344  0E5D  00BC               	movwf	___flmul@b+2
  1345  0E5E  0871               	movf	?___xxtofl+1,w
  1346  0E5F  00BB               	movwf	___flmul@b+1
  1347  0E60  0870               	movf	?___xxtofl,w
  1348  0E61  00BA               	movwf	___flmul@b
  1349  0E62  120A  118A  2020  120A  158A  	fcall	___flmul
  1350  0E67  1283               	bcf	3,5	;RP0=0, select bank0
  1351  0E68  1303               	bcf	3,6	;RP1=0, select bank0
  1352  0E69  083D               	movf	?___flmul+3,w
  1353  0E6A  00D7               	movwf	___fladd@b+3
  1354  0E6B  083C               	movf	?___flmul+2,w
  1355  0E6C  00D6               	movwf	___fladd@b+2
  1356  0E6D  083B               	movf	?___flmul+1,w
  1357  0E6E  00D5               	movwf	___fladd@b+1
  1358  0E6F  083A               	movf	?___flmul,w
  1359  0E70  00D4               	movwf	___fladd@b
  1360  0E71  120A  118A  2381  120A  158A  	fcall	___fladd
  1361  0E76  1283               	bcf	3,5	;RP0=0, select bank0
  1362  0E77  1303               	bcf	3,6	;RP1=0, select bank0
  1363  0E78  0857               	movf	?___fladd+3,w
  1364  0E79  00EB               	movwf	___fltol@f1+3
  1365  0E7A  0856               	movf	?___fladd+2,w
  1366  0E7B  00EA               	movwf	___fltol@f1+2
  1367  0E7C  0855               	movf	?___fladd+1,w
  1368  0E7D  00E9               	movwf	___fltol@f1+1
  1369  0E7E  0854               	movf	?___fladd,w
  1370  0E7F  00E8               	movwf	___fltol@f1
  1371  0E80  120A  158A  2544  120A  158A  	fcall	___fltol
  1372  0E85  1283               	bcf	3,5	;RP0=0, select bank0
  1373  0E86  1303               	bcf	3,6	;RP1=0, select bank0
  1374  0E87  0869               	movf	?___fltol+1,w
  1375  0E88  1683               	bsf	3,5	;RP0=1, select bank1
  1376  0E89  1303               	bcf	3,6	;RP1=0, select bank1
  1377  0E8A  00A6               	movwf	(?_map+1)^(0+128)
  1378  0E8B  1283               	bcf	3,5	;RP0=0, select bank0
  1379  0E8C  1303               	bcf	3,6	;RP1=0, select bank0
  1380  0E8D  0868               	movf	?___fltol,w
  1381  0E8E  1683               	bsf	3,5	;RP0=1, select bank1
  1382  0E8F  1303               	bcf	3,6	;RP1=0, select bank1
  1383  0E90  00A5               	movwf	?_map^(0+128)
  1384  0E91                     i1l89:
  1385  0E91  0008               	return
  1386  0E92                     __end_of_map:
  1387                           
  1388                           	psect	text4
  1389  0F46                     __ptext4:	
  1390 ;; *************** function ___xxtofl *****************
  1391 ;; Defined at:
  1392 ;;		line 10 in file "C:\Program Files\Microchip\xc8\v2.35\pic\sources\c90\common\xxtofl.c"
  1393 ;; Parameters:    Size  Location     Type
  1394 ;;  sign            1    wreg     unsigned char 
  1395 ;;  val             4    0[COMMON] long 
  1396 ;; Auto vars:     Size  Location     Type
  1397 ;;  sign            1    8[COMMON] unsigned char 
  1398 ;;  arg             4   10[COMMON] unsigned long 
  1399 ;;  exp             1    9[COMMON] unsigned char 
  1400 ;; Return value:  Size  Location     Type
  1401 ;;                  4    0[COMMON] unsigned char 
  1402 ;; Registers used:
  1403 ;;		wreg, status,2, status,0
  1404 ;; Tracked objects:
  1405 ;;		On entry : 0/0
  1406 ;;		On exit  : 0/0
  1407 ;;		Unchanged: 0/0
  1408 ;; Data sizes:     COMMON   BANK0   BANK1   BANK3   BANK2
  1409 ;;      Params:         4       0       0       0       0
  1410 ;;      Locals:         6       0       0       0       0
  1411 ;;      Temps:          4       0       0       0       0
  1412 ;;      Totals:        14       0       0       0       0
  1413 ;;Total ram usage:       14 bytes
  1414 ;; Hardware stack levels used: 1
  1415 ;; This function calls:
  1416 ;;		Nothing
  1417 ;; This function is called by:
  1418 ;;		_map
  1419 ;; This function uses a non-reentrant model
  1420 ;;
  1421                           
  1422  0F46                     ___xxtofl:	
  1423                           ;psect for function ___xxtofl
  1424                           
  1425                           
  1426                           ;incstack = 0
  1427                           ; Regs used in ___xxtofl: [wreg+status,2+status,0]
  1428                           ;___xxtofl@sign stored from wreg
  1429  0F46  00F8               	movwf	___xxtofl@sign
  1430  0F47                     i1l1909:
  1431  0F47  0878               	movf	___xxtofl@sign,w
  1432  0F48  1903               	btfsc	3,2
  1433  0F49  2F4B               	goto	u271_21
  1434  0F4A  2F4C               	goto	u271_20
  1435  0F4B                     u271_21:
  1436  0F4B  2F60               	goto	i1l1915
  1437  0F4C                     u271_20:
  1438  0F4C                     i1l1911:
  1439  0F4C  1FF3               	btfss	___xxtofl@val+3,7
  1440  0F4D  2F4F               	goto	u272_21
  1441  0F4E  2F50               	goto	u272_20
  1442  0F4F                     u272_21:
  1443  0F4F  2F60               	goto	i1l1915
  1444  0F50                     u272_20:
  1445  0F50                     i1l1913:
  1446  0F50  0970               	comf	___xxtofl@val,w
  1447  0F51  00FA               	movwf	___xxtofl@arg
  1448  0F52  0971               	comf	___xxtofl@val+1,w
  1449  0F53  00FB               	movwf	___xxtofl@arg+1
  1450  0F54  0972               	comf	___xxtofl@val+2,w
  1451  0F55  00FC               	movwf	___xxtofl@arg+2
  1452  0F56  0973               	comf	___xxtofl@val+3,w
  1453  0F57  00FD               	movwf	___xxtofl@arg+3
  1454  0F58  0AFA               	incf	___xxtofl@arg,f
  1455  0F59  1903               	skipnz
  1456  0F5A  0AFB               	incf	___xxtofl@arg+1,f
  1457  0F5B  1903               	skipnz
  1458  0F5C  0AFC               	incf	___xxtofl@arg+2,f
  1459  0F5D  1903               	skipnz
  1460  0F5E  0AFD               	incf	___xxtofl@arg+3,f
  1461  0F5F  2F68               	goto	i1l608
  1462  0F60                     i1l1915:
  1463  0F60  0873               	movf	___xxtofl@val+3,w
  1464  0F61  00FD               	movwf	___xxtofl@arg+3
  1465  0F62  0872               	movf	___xxtofl@val+2,w
  1466  0F63  00FC               	movwf	___xxtofl@arg+2
  1467  0F64  0871               	movf	___xxtofl@val+1,w
  1468  0F65  00FB               	movwf	___xxtofl@arg+1
  1469  0F66  0870               	movf	___xxtofl@val,w
  1470  0F67  00FA               	movwf	___xxtofl@arg
  1471  0F68                     i1l608:
  1472  0F68  0873               	movf	___xxtofl@val+3,w
  1473  0F69  0472               	iorwf	___xxtofl@val+2,w
  1474  0F6A  0471               	iorwf	___xxtofl@val+1,w
  1475  0F6B  0470               	iorwf	___xxtofl@val,w
  1476  0F6C  1D03               	skipz
  1477  0F6D  2F6F               	goto	u273_21
  1478  0F6E  2F70               	goto	u273_20
  1479  0F6F                     u273_21:
  1480  0F6F  2F79               	goto	i1l1921
  1481  0F70                     u273_20:
  1482  0F70                     i1l1917:
  1483  0F70  3000               	movlw	0
  1484  0F71  00F3               	movwf	?___xxtofl+3
  1485  0F72  3000               	movlw	0
  1486  0F73  00F2               	movwf	?___xxtofl+2
  1487  0F74  3000               	movlw	0
  1488  0F75  00F1               	movwf	?___xxtofl+1
  1489  0F76  3000               	movlw	0
  1490  0F77  00F0               	movwf	?___xxtofl
  1491  0F78  2FFF               	goto	i1l610
  1492  0F79                     i1l1921:
  1493  0F79  3096               	movlw	150
  1494  0F7A  00F4               	movwf	??___xxtofl
  1495  0F7B  0874               	movf	??___xxtofl,w
  1496  0F7C  00F9               	movwf	___xxtofl@exp
  1497  0F7D  2F8B               	goto	i1l1925
  1498  0F7E                     i1l1923:
  1499  0F7E  3001               	movlw	1
  1500  0F7F  00F4               	movwf	??___xxtofl
  1501  0F80  0874               	movf	??___xxtofl,w
  1502  0F81  07F9               	addwf	___xxtofl@exp,f
  1503  0F82  3001               	movlw	1
  1504  0F83                     u274_25:
  1505  0F83  1003               	clrc
  1506  0F84  0CFD               	rrf	___xxtofl@arg+3,f
  1507  0F85  0CFC               	rrf	___xxtofl@arg+2,f
  1508  0F86  0CFB               	rrf	___xxtofl@arg+1,f
  1509  0F87  0CFA               	rrf	___xxtofl@arg,f
  1510  0F88  3EFF               	addlw	-1
  1511  0F89  1D03               	skipz
  1512  0F8A  2F83               	goto	u274_25
  1513  0F8B                     i1l1925:
  1514  0F8B  30FE               	movlw	254
  1515  0F8C  057D               	andwf	___xxtofl@arg+3,w
  1516  0F8D  1D03               	btfss	3,2
  1517  0F8E  2F90               	goto	u275_21
  1518  0F8F  2F91               	goto	u275_20
  1519  0F90                     u275_21:
  1520  0F90  2F7E               	goto	i1l1923
  1521  0F91                     u275_20:
  1522  0F91  2FAD               	goto	i1l614
  1523  0F92                     i1l1927:
  1524  0F92  3001               	movlw	1
  1525  0F93  00F4               	movwf	??___xxtofl
  1526  0F94  0874               	movf	??___xxtofl,w
  1527  0F95  07F9               	addwf	___xxtofl@exp,f
  1528  0F96                     i1l1929:
  1529  0F96  3001               	movlw	1
  1530  0F97  07FA               	addwf	___xxtofl@arg,f
  1531  0F98  3000               	movlw	0
  1532  0F99  1803               	skipnc
  1533  0F9A  3001               	movlw	1
  1534  0F9B  07FB               	addwf	___xxtofl@arg+1,f
  1535  0F9C  3000               	movlw	0
  1536  0F9D  1803               	skipnc
  1537  0F9E  3001               	movlw	1
  1538  0F9F  07FC               	addwf	___xxtofl@arg+2,f
  1539  0FA0  3000               	movlw	0
  1540  0FA1  1803               	skipnc
  1541  0FA2  3001               	movlw	1
  1542  0FA3  07FD               	addwf	___xxtofl@arg+3,f
  1543  0FA4                     i1l1931:
  1544  0FA4  3001               	movlw	1
  1545  0FA5                     u276_25:
  1546  0FA5  1003               	clrc
  1547  0FA6  0CFD               	rrf	___xxtofl@arg+3,f
  1548  0FA7  0CFC               	rrf	___xxtofl@arg+2,f
  1549  0FA8  0CFB               	rrf	___xxtofl@arg+1,f
  1550  0FA9  0CFA               	rrf	___xxtofl@arg,f
  1551  0FAA  3EFF               	addlw	-1
  1552  0FAB  1D03               	skipz
  1553  0FAC  2FA5               	goto	u276_25
  1554  0FAD                     i1l614:
  1555  0FAD  30FF               	movlw	255
  1556  0FAE  057D               	andwf	___xxtofl@arg+3,w
  1557  0FAF  1D03               	btfss	3,2
  1558  0FB0  2FB2               	goto	u277_21
  1559  0FB1  2FB3               	goto	u277_20
  1560  0FB2                     u277_21:
  1561  0FB2  2F92               	goto	i1l1927
  1562  0FB3                     u277_20:
  1563  0FB3  2FBF               	goto	i1l1935
  1564  0FB4                     i1l1933:
  1565  0FB4  3001               	movlw	1
  1566  0FB5  02F9               	subwf	___xxtofl@exp,f
  1567  0FB6  3001               	movlw	1
  1568  0FB7  00F4               	movwf	??___xxtofl
  1569  0FB8                     u278_25:
  1570  0FB8  1003               	clrc
  1571  0FB9  0DFA               	rlf	___xxtofl@arg,f
  1572  0FBA  0DFB               	rlf	___xxtofl@arg+1,f
  1573  0FBB  0DFC               	rlf	___xxtofl@arg+2,f
  1574  0FBC  0DFD               	rlf	___xxtofl@arg+3,f
  1575  0FBD  0BF4               	decfsz	??___xxtofl,f
  1576  0FBE  2FB8               	goto	u278_25
  1577  0FBF                     i1l1935:
  1578  0FBF  1BFC               	btfsc	___xxtofl@arg+2,7
  1579  0FC0  2FC2               	goto	u279_21
  1580  0FC1  2FC3               	goto	u279_20
  1581  0FC2                     u279_21:
  1582  0FC2  2FC9               	goto	i1l621
  1583  0FC3                     u279_20:
  1584  0FC3                     i1l1937:
  1585  0FC3  3002               	movlw	2
  1586  0FC4  0279               	subwf	___xxtofl@exp,w
  1587  0FC5  1803               	skipnc
  1588  0FC6  2FC8               	goto	u280_21
  1589  0FC7  2FC9               	goto	u280_20
  1590  0FC8                     u280_21:
  1591  0FC8  2FB4               	goto	i1l1933
  1592  0FC9                     u280_20:
  1593  0FC9                     i1l621:
  1594  0FC9  1879               	btfsc	___xxtofl@exp,0
  1595  0FCA  2FCC               	goto	u281_21
  1596  0FCB  2FCD               	goto	u281_20
  1597  0FCC                     u281_21:
  1598  0FCC  2FD5               	goto	i1l622
  1599  0FCD                     u281_20:
  1600  0FCD                     i1l1939:
  1601  0FCD  30FF               	movlw	255
  1602  0FCE  05FA               	andwf	___xxtofl@arg,f
  1603  0FCF  30FF               	movlw	255
  1604  0FD0  05FB               	andwf	___xxtofl@arg+1,f
  1605  0FD1  307F               	movlw	127
  1606  0FD2  05FC               	andwf	___xxtofl@arg+2,f
  1607  0FD3  30FF               	movlw	255
  1608  0FD4  05FD               	andwf	___xxtofl@arg+3,f
  1609  0FD5                     i1l622:
  1610  0FD5  1003               	clrc
  1611  0FD6  0CF9               	rrf	___xxtofl@exp,f
  1612  0FD7                     i1l1941:
  1613  0FD7  0879               	movf	___xxtofl@exp,w
  1614  0FD8  00F4               	movwf	??___xxtofl
  1615  0FD9  01F5               	clrf	??___xxtofl+1
  1616  0FDA  01F6               	clrf	??___xxtofl+2
  1617  0FDB  01F7               	clrf	??___xxtofl+3
  1618  0FDC  3018               	movlw	24
  1619  0FDD                     u282_25:
  1620  0FDD  1003               	clrc
  1621  0FDE  0DF4               	rlf	??___xxtofl,f
  1622  0FDF  0DF5               	rlf	??___xxtofl+1,f
  1623  0FE0  0DF6               	rlf	??___xxtofl+2,f
  1624  0FE1  0DF7               	rlf	??___xxtofl+3,f
  1625  0FE2                     u282_20:
  1626  0FE2  3EFF               	addlw	-1
  1627  0FE3  1D03               	skipz
  1628  0FE4  2FDD               	goto	u282_25
  1629  0FE5  0874               	movf	??___xxtofl,w
  1630  0FE6  04FA               	iorwf	___xxtofl@arg,f
  1631  0FE7  0875               	movf	??___xxtofl+1,w
  1632  0FE8  04FB               	iorwf	___xxtofl@arg+1,f
  1633  0FE9  0876               	movf	??___xxtofl+2,w
  1634  0FEA  04FC               	iorwf	___xxtofl@arg+2,f
  1635  0FEB  0877               	movf	??___xxtofl+3,w
  1636  0FEC  04FD               	iorwf	___xxtofl@arg+3,f
  1637  0FED                     i1l1943:
  1638  0FED  0878               	movf	___xxtofl@sign,w
  1639  0FEE  1903               	btfsc	3,2
  1640  0FEF  2FF1               	goto	u283_21
  1641  0FF0  2FF2               	goto	u283_20
  1642  0FF1                     u283_21:
  1643  0FF1  2FF7               	goto	i1l1949
  1644  0FF2                     u283_20:
  1645  0FF2                     i1l1945:
  1646  0FF2  1FF3               	btfss	___xxtofl@val+3,7
  1647  0FF3  2FF5               	goto	u284_21
  1648  0FF4  2FF6               	goto	u284_20
  1649  0FF5                     u284_21:
  1650  0FF5  2FF7               	goto	i1l1949
  1651  0FF6                     u284_20:
  1652  0FF6                     i1l1947:
  1653  0FF6  17FD               	bsf	___xxtofl@arg+3,7
  1654  0FF7                     i1l1949:
  1655  0FF7  087D               	movf	___xxtofl@arg+3,w
  1656  0FF8  00F3               	movwf	?___xxtofl+3
  1657  0FF9  087C               	movf	___xxtofl@arg+2,w
  1658  0FFA  00F2               	movwf	?___xxtofl+2
  1659  0FFB  087B               	movf	___xxtofl@arg+1,w
  1660  0FFC  00F1               	movwf	?___xxtofl+1
  1661  0FFD  087A               	movf	___xxtofl@arg,w
  1662  0FFE  00F0               	movwf	?___xxtofl
  1663  0FFF                     i1l610:
  1664  0FFF  0008               	return
  1665  1000                     __end_of___xxtofl:
  1666                           
  1667                           	psect	text5
  1668  0D44                     __ptext5:	
  1669 ;; *************** function ___fltol *****************
  1670 ;; Defined at:
  1671 ;;		line 43 in file "C:\Program Files\Microchip\xc8\v2.35\pic\sources\c90\common\fltol.c"
  1672 ;; Parameters:    Size  Location     Type
  1673 ;;  f1              4   72[BANK0 ] unsigned char 
  1674 ;; Auto vars:     Size  Location     Type
  1675 ;;  exp1            1   77[BANK0 ] unsigned char 
  1676 ;;  sign1           1   76[BANK0 ] unsigned char 
  1677 ;; Return value:  Size  Location     Type
  1678 ;;                  4   72[BANK0 ] long 
  1679 ;; Registers used:
  1680 ;;		wreg, status,2, status,0
  1681 ;; Tracked objects:
  1682 ;;		On entry : 0/0
  1683 ;;		On exit  : 0/0
  1684 ;;		Unchanged: 0/0
  1685 ;; Data sizes:     COMMON   BANK0   BANK1   BANK3   BANK2
  1686 ;;      Params:         0       4       0       0       0
  1687 ;;      Locals:         0       2       0       0       0
  1688 ;;      Temps:          0       0       5       0       0
  1689 ;;      Totals:         0       6       5       0       0
  1690 ;;Total ram usage:       11 bytes
  1691 ;; Hardware stack levels used: 1
  1692 ;; This function calls:
  1693 ;;		Nothing
  1694 ;; This function is called by:
  1695 ;;		_map
  1696 ;; This function uses a non-reentrant model
  1697 ;;
  1698                           
  1699  0D44                     ___fltol:	
  1700                           ;psect for function ___fltol
  1701                           
  1702  0D44                     i1l1397:	
  1703                           ;incstack = 0
  1704                           ; Regs used in ___fltol: [wreg+status,2+status,0]
  1705                           
  1706  0D44  1003               	clrc
  1707  0D45  1283               	bcf	3,5	;RP0=0, select bank0
  1708  0D46  1303               	bcf	3,6	;RP1=0, select bank0
  1709  0D47  0D6A               	rlf	___fltol@f1+2,w
  1710  0D48  0D6B               	rlf	___fltol@f1+3,w
  1711  0D49  1683               	bsf	3,5	;RP0=1, select bank1
  1712  0D4A  1303               	bcf	3,6	;RP1=0, select bank1
  1713  0D4B  00A0               	movwf	??___fltol^(0+128)
  1714  0D4C  0820               	movf	??___fltol^(0+128),w
  1715  0D4D  1283               	bcf	3,5	;RP0=0, select bank0
  1716  0D4E  1303               	bcf	3,6	;RP1=0, select bank0
  1717  0D4F  00ED               	movwf	___fltol@exp1
  1718  0D50  086D               	movf	___fltol@exp1,w
  1719  0D51  1D03               	btfss	3,2
  1720  0D52  2D54               	goto	u149_21
  1721  0D53  2D55               	goto	u149_20
  1722  0D54                     u149_21:
  1723  0D54  2D5E               	goto	i1l1403
  1724  0D55                     u149_20:
  1725  0D55                     i1l1399:
  1726  0D55  3000               	movlw	0
  1727  0D56  00EB               	movwf	?___fltol+3
  1728  0D57  3000               	movlw	0
  1729  0D58  00EA               	movwf	?___fltol+2
  1730  0D59  3000               	movlw	0
  1731  0D5A  00E9               	movwf	?___fltol+1
  1732  0D5B  3000               	movlw	0
  1733  0D5C  00E8               	movwf	?___fltol
  1734  0D5D  2DDF               	goto	i1l361
  1735  0D5E                     i1l1403:
  1736  0D5E  0868               	movf	___fltol@f1,w
  1737  0D5F  1683               	bsf	3,5	;RP0=1, select bank1
  1738  0D60  1303               	bcf	3,6	;RP1=0, select bank1
  1739  0D61  00A0               	movwf	??___fltol^(0+128)
  1740  0D62  1283               	bcf	3,5	;RP0=0, select bank0
  1741  0D63  1303               	bcf	3,6	;RP1=0, select bank0
  1742  0D64  0869               	movf	___fltol@f1+1,w
  1743  0D65  1683               	bsf	3,5	;RP0=1, select bank1
  1744  0D66  1303               	bcf	3,6	;RP1=0, select bank1
  1745  0D67  00A1               	movwf	(??___fltol^(0+128)+1)
  1746  0D68  1283               	bcf	3,5	;RP0=0, select bank0
  1747  0D69  1303               	bcf	3,6	;RP1=0, select bank0
  1748  0D6A  086A               	movf	___fltol@f1+2,w
  1749  0D6B  1683               	bsf	3,5	;RP0=1, select bank1
  1750  0D6C  1303               	bcf	3,6	;RP1=0, select bank1
  1751  0D6D  00A2               	movwf	(??___fltol^(0+128)+2)
  1752  0D6E  1283               	bcf	3,5	;RP0=0, select bank0
  1753  0D6F  1303               	bcf	3,6	;RP1=0, select bank0
  1754  0D70  086B               	movf	___fltol@f1+3,w
  1755  0D71  1683               	bsf	3,5	;RP0=1, select bank1
  1756  0D72  1303               	bcf	3,6	;RP1=0, select bank1
  1757  0D73  00A3               	movwf	(??___fltol^(0+128)+3)
  1758  0D74  301F               	movlw	31
  1759  0D75                     u150_25:
  1760  0D75  1003               	clrc
  1761  0D76  0CA3               	rrf	(??___fltol^(0+128)+3),f
  1762  0D77  0CA2               	rrf	(??___fltol^(0+128)+2),f
  1763  0D78  0CA1               	rrf	(??___fltol^(0+128)+1),f
  1764  0D79  0CA0               	rrf	??___fltol^(0+128),f
  1765  0D7A                     u150_20:
  1766  0D7A  3EFF               	addlw	-1
  1767  0D7B  1D03               	skipz
  1768  0D7C  2D75               	goto	u150_25
  1769  0D7D  0820               	movf	??___fltol^(0+128),w
  1770  0D7E  00A4               	movwf	(??___fltol+4)^(0+128)
  1771  0D7F  0824               	movf	(??___fltol+4)^(0+128),w
  1772  0D80  1283               	bcf	3,5	;RP0=0, select bank0
  1773  0D81  1303               	bcf	3,6	;RP1=0, select bank0
  1774  0D82  00EC               	movwf	___fltol@sign1
  1775  0D83                     i1l1405:
  1776  0D83  17EA               	bsf	___fltol@f1+2,7
  1777  0D84                     i1l1407:
  1778  0D84  30FF               	movlw	255
  1779  0D85  05E8               	andwf	___fltol@f1,f
  1780  0D86  30FF               	movlw	255
  1781  0D87  05E9               	andwf	___fltol@f1+1,f
  1782  0D88  30FF               	movlw	255
  1783  0D89  05EA               	andwf	___fltol@f1+2,f
  1784  0D8A  3000               	movlw	0
  1785  0D8B  05EB               	andwf	___fltol@f1+3,f
  1786  0D8C                     i1l1409:
  1787  0D8C  3096               	movlw	150
  1788  0D8D  02ED               	subwf	___fltol@exp1,f
  1789  0D8E                     i1l1411:
  1790  0D8E  1FED               	btfss	___fltol@exp1,7
  1791  0D8F  2D91               	goto	u151_21
  1792  0D90  2D92               	goto	u151_20
  1793  0D91                     u151_21:
  1794  0D91  2DB0               	goto	i1l1421
  1795  0D92                     u151_20:
  1796  0D92                     i1l1413:
  1797  0D92  086D               	movf	___fltol@exp1,w
  1798  0D93  3A80               	xorlw	128
  1799  0D94  3E97               	addlw	151
  1800  0D95  1803               	skipnc
  1801  0D96  2D98               	goto	u152_21
  1802  0D97  2D99               	goto	u152_20
  1803  0D98                     u152_21:
  1804  0D98  2D9A               	goto	i1l1419
  1805  0D99                     u152_20:
  1806  0D99  2D55               	goto	i1l1399
  1807  0D9A                     i1l1419:
  1808  0D9A  3001               	movlw	1
  1809  0D9B                     u153_25:
  1810  0D9B  1003               	clrc
  1811  0D9C  0CEB               	rrf	___fltol@f1+3,f
  1812  0D9D  0CEA               	rrf	___fltol@f1+2,f
  1813  0D9E  0CE9               	rrf	___fltol@f1+1,f
  1814  0D9F  0CE8               	rrf	___fltol@f1,f
  1815  0DA0  3EFF               	addlw	-1
  1816  0DA1  1D03               	skipz
  1817  0DA2  2D9B               	goto	u153_25
  1818  0DA3  3001               	movlw	1
  1819  0DA4  1683               	bsf	3,5	;RP0=1, select bank1
  1820  0DA5  1303               	bcf	3,6	;RP1=0, select bank1
  1821  0DA6  00A0               	movwf	??___fltol^(0+128)
  1822  0DA7  0820               	movf	??___fltol^(0+128),w
  1823  0DA8  1283               	bcf	3,5	;RP0=0, select bank0
  1824  0DA9  1303               	bcf	3,6	;RP1=0, select bank0
  1825  0DAA  07ED               	addwf	___fltol@exp1,f
  1826  0DAB  1D03               	btfss	3,2
  1827  0DAC  2DAE               	goto	u154_21
  1828  0DAD  2DAF               	goto	u154_20
  1829  0DAE                     u154_21:
  1830  0DAE  2D9A               	goto	i1l1419
  1831  0DAF                     u154_20:
  1832  0DAF  2DCF               	goto	i1l1429
  1833  0DB0                     i1l1421:
  1834  0DB0  3020               	movlw	32
  1835  0DB1  026D               	subwf	___fltol@exp1,w
  1836  0DB2  1C03               	skipc
  1837  0DB3  2DB5               	goto	u155_21
  1838  0DB4  2DB6               	goto	u155_20
  1839  0DB5                     u155_21:
  1840  0DB5  2DCA               	goto	i1l368
  1841  0DB6                     u155_20:
  1842  0DB6  2D55               	goto	i1l1399
  1843  0DB7                     i1l1427:
  1844  0DB7  3001               	movlw	1
  1845  0DB8  1683               	bsf	3,5	;RP0=1, select bank1
  1846  0DB9  1303               	bcf	3,6	;RP1=0, select bank1
  1847  0DBA  00A0               	movwf	??___fltol^(0+128)
  1848  0DBB                     u156_25:
  1849  0DBB  1003               	clrc
  1850  0DBC  1283               	bcf	3,5	;RP0=0, select bank0
  1851  0DBD  1303               	bcf	3,6	;RP1=0, select bank0
  1852  0DBE  0DE8               	rlf	___fltol@f1,f
  1853  0DBF  0DE9               	rlf	___fltol@f1+1,f
  1854  0DC0  0DEA               	rlf	___fltol@f1+2,f
  1855  0DC1  0DEB               	rlf	___fltol@f1+3,f
  1856  0DC2  1683               	bsf	3,5	;RP0=1, select bank1
  1857  0DC3  1303               	bcf	3,6	;RP1=0, select bank1
  1858  0DC4  0BA0               	decfsz	??___fltol^(0+128),f
  1859  0DC5  2DBB               	goto	u156_25
  1860  0DC6  3001               	movlw	1
  1861  0DC7  1283               	bcf	3,5	;RP0=0, select bank0
  1862  0DC8  1303               	bcf	3,6	;RP1=0, select bank0
  1863  0DC9  02ED               	subwf	___fltol@exp1,f
  1864  0DCA                     i1l368:
  1865  0DCA  086D               	movf	___fltol@exp1,w
  1866  0DCB  1D03               	btfss	3,2
  1867  0DCC  2DCE               	goto	u157_21
  1868  0DCD  2DCF               	goto	u157_20
  1869  0DCE                     u157_21:
  1870  0DCE  2DB7               	goto	i1l1427
  1871  0DCF                     u157_20:
  1872  0DCF                     i1l1429:
  1873  0DCF  086C               	movf	___fltol@sign1,w
  1874  0DD0  1903               	btfsc	3,2
  1875  0DD1  2DD3               	goto	u158_21
  1876  0DD2  2DD4               	goto	u158_20
  1877  0DD3                     u158_21:
  1878  0DD3  2DDF               	goto	i1l371
  1879  0DD4                     u158_20:
  1880  0DD4                     i1l1431:
  1881  0DD4  09E8               	comf	___fltol@f1,f
  1882  0DD5  09E9               	comf	___fltol@f1+1,f
  1883  0DD6  09EA               	comf	___fltol@f1+2,f
  1884  0DD7  09EB               	comf	___fltol@f1+3,f
  1885  0DD8  0AE8               	incf	___fltol@f1,f
  1886  0DD9  1903               	skipnz
  1887  0DDA  0AE9               	incf	___fltol@f1+1,f
  1888  0DDB  1903               	skipnz
  1889  0DDC  0AEA               	incf	___fltol@f1+2,f
  1890  0DDD  1903               	skipnz
  1891  0DDE  0AEB               	incf	___fltol@f1+3,f
  1892  0DDF                     i1l371:
  1893  0DDF                     i1l361:
  1894  0DDF  0008               	return
  1895  0DE0                     __end_of___fltol:
  1896                           
  1897                           	psect	text6
  1898  0020                     __ptext6:	
  1899 ;; *************** function ___flmul *****************
  1900 ;; Defined at:
  1901 ;;		line 8 in file "C:\Program Files\Microchip\xc8\v2.35\pic\sources\c90\common\sprcmul.c"
  1902 ;; Parameters:    Size  Location     Type
  1903 ;;  b               4   26[BANK0 ] long 
  1904 ;;  a               4   30[BANK0 ] long 
  1905 ;; Auto vars:     Size  Location     Type
  1906 ;;  prod            4   46[BANK0 ] struct .
  1907 ;;  grs             4   40[BANK0 ] unsigned long 
  1908 ;;  temp            2   50[BANK0 ] struct .
  1909 ;;  bexp            1   45[BANK0 ] unsigned char 
  1910 ;;  aexp            1   44[BANK0 ] unsigned char 
  1911 ;;  sign            1   39[BANK0 ] unsigned char 
  1912 ;; Return value:  Size  Location     Type
  1913 ;;                  4   26[BANK0 ] unsigned char 
  1914 ;; Registers used:
  1915 ;;		wreg, status,2, status,0, btemp+1, pclath, cstack
  1916 ;; Tracked objects:
  1917 ;;		On entry : 0/0
  1918 ;;		On exit  : 0/0
  1919 ;;		Unchanged: 0/0
  1920 ;; Data sizes:     COMMON   BANK0   BANK1   BANK3   BANK2
  1921 ;;      Params:         0       8       0       0       0
  1922 ;;      Locals:         0      13       0       0       0
  1923 ;;      Temps:          0       5       0       0       0
  1924 ;;      Totals:         0      26       0       0       0
  1925 ;;Total ram usage:       26 bytes
  1926 ;; Hardware stack levels used: 1
  1927 ;; Hardware stack levels required when called: 1
  1928 ;; This function calls:
  1929 ;;		__Umul8_16
  1930 ;; This function is called by:
  1931 ;;		_map
  1932 ;; This function uses a non-reentrant model
  1933 ;;
  1934                           
  1935  0020                     ___flmul:	
  1936                           ;psect for function ___flmul
  1937                           
  1938  0020                     i1l1769:	
  1939                           ;incstack = 0
  1940                           ; Regs used in ___flmul: [wreg+status,2+status,0+btemp+1+pclath+cstack]
  1941                           
  1942  0020  1283               	bcf	3,5	;RP0=0, select bank0
  1943  0021  1303               	bcf	3,6	;RP1=0, select bank0
  1944  0022  083D               	movf	___flmul@b+3,w
  1945  0023  3980               	andlw	128
  1946  0024  00C2               	movwf	??___flmul
  1947  0025  0842               	movf	??___flmul,w
  1948  0026  00C7               	movwf	___flmul@sign
  1949  0027                     i1l1771:
  1950  0027  083D               	movf	___flmul@b+3,w
  1951  0028  00C2               	movwf	??___flmul
  1952  0029  0742               	addwf	??___flmul,w
  1953  002A  00C3               	movwf	??___flmul+1
  1954  002B  0843               	movf	??___flmul+1,w
  1955  002C  00CD               	movwf	___flmul@bexp
  1956  002D                     i1l1773:
  1957  002D  1FBC               	btfss	___flmul@b+2,7
  1958  002E  2830               	goto	u234_21
  1959  002F  2831               	goto	u234_20
  1960  0030                     u234_21:
  1961  0030  2832               	goto	i1l1777
  1962  0031                     u234_20:
  1963  0031                     i1l1775:
  1964  0031  144D               	bsf	___flmul@bexp,0
  1965  0032                     i1l1777:
  1966  0032  084D               	movf	___flmul@bexp,w
  1967  0033  1903               	btfsc	3,2
  1968  0034  2836               	goto	u235_21
  1969  0035  2837               	goto	u235_20
  1970  0036                     u235_21:
  1971  0036  2846               	goto	i1l1785
  1972  0037                     u235_20:
  1973  0037                     i1l1779:
  1974  0037  0A4D               	incf	___flmul@bexp,w
  1975  0038  1D03               	btfss	3,2
  1976  0039  283B               	goto	u236_21
  1977  003A  283C               	goto	u236_20
  1978  003B                     u236_21:
  1979  003B  2844               	goto	i1l1783
  1980  003C                     u236_20:
  1981  003C                     i1l1781:
  1982  003C  3000               	movlw	0
  1983  003D  00BD               	movwf	___flmul@b+3
  1984  003E  3000               	movlw	0
  1985  003F  00BC               	movwf	___flmul@b+2
  1986  0040  3000               	movlw	0
  1987  0041  00BB               	movwf	___flmul@b+1
  1988  0042  3000               	movlw	0
  1989  0043  00BA               	movwf	___flmul@b
  1990  0044                     i1l1783:
  1991  0044  17BC               	bsf	___flmul@b+2,7
  1992  0045  284E               	goto	i1l1787
  1993  0046                     i1l1785:
  1994  0046  3000               	movlw	0
  1995  0047  00BD               	movwf	___flmul@b+3
  1996  0048  3000               	movlw	0
  1997  0049  00BC               	movwf	___flmul@b+2
  1998  004A  3000               	movlw	0
  1999  004B  00BB               	movwf	___flmul@b+1
  2000  004C  3000               	movlw	0
  2001  004D  00BA               	movwf	___flmul@b
  2002  004E                     i1l1787:
  2003  004E  0841               	movf	___flmul@a+3,w
  2004  004F  3980               	andlw	128
  2005  0050  00C2               	movwf	??___flmul
  2006  0051  0842               	movf	??___flmul,w
  2007  0052  06C7               	xorwf	___flmul@sign,f
  2008  0053                     i1l1789:
  2009  0053  0841               	movf	___flmul@a+3,w
  2010  0054  00C2               	movwf	??___flmul
  2011  0055  0742               	addwf	??___flmul,w
  2012  0056  00C3               	movwf	??___flmul+1
  2013  0057  0843               	movf	??___flmul+1,w
  2014  0058  00CC               	movwf	___flmul@aexp
  2015  0059                     i1l1791:
  2016  0059  1FC0               	btfss	___flmul@a+2,7
  2017  005A  285C               	goto	u237_21
  2018  005B  285D               	goto	u237_20
  2019  005C                     u237_21:
  2020  005C  285E               	goto	i1l1795
  2021  005D                     u237_20:
  2022  005D                     i1l1793:
  2023  005D  144C               	bsf	___flmul@aexp,0
  2024  005E                     i1l1795:
  2025  005E  084C               	movf	___flmul@aexp,w
  2026  005F  1903               	btfsc	3,2
  2027  0060  2862               	goto	u238_21
  2028  0061  2863               	goto	u238_20
  2029  0062                     u238_21:
  2030  0062  2872               	goto	i1l1803
  2031  0063                     u238_20:
  2032  0063                     i1l1797:
  2033  0063  0A4C               	incf	___flmul@aexp,w
  2034  0064  1D03               	btfss	3,2
  2035  0065  2867               	goto	u239_21
  2036  0066  2868               	goto	u239_20
  2037  0067                     u239_21:
  2038  0067  2870               	goto	i1l1801
  2039  0068                     u239_20:
  2040  0068                     i1l1799:
  2041  0068  3000               	movlw	0
  2042  0069  00C1               	movwf	___flmul@a+3
  2043  006A  3000               	movlw	0
  2044  006B  00C0               	movwf	___flmul@a+2
  2045  006C  3000               	movlw	0
  2046  006D  00BF               	movwf	___flmul@a+1
  2047  006E  3000               	movlw	0
  2048  006F  00BE               	movwf	___flmul@a
  2049  0070                     i1l1801:
  2050  0070  17C0               	bsf	___flmul@a+2,7
  2051  0071  287A               	goto	i1l1805
  2052  0072                     i1l1803:
  2053  0072  3000               	movlw	0
  2054  0073  00C1               	movwf	___flmul@a+3
  2055  0074  3000               	movlw	0
  2056  0075  00C0               	movwf	___flmul@a+2
  2057  0076  3000               	movlw	0
  2058  0077  00BF               	movwf	___flmul@a+1
  2059  0078  3000               	movlw	0
  2060  0079  00BE               	movwf	___flmul@a
  2061  007A                     i1l1805:
  2062  007A  084C               	movf	___flmul@aexp,w
  2063  007B  1903               	btfsc	3,2
  2064  007C  287E               	goto	u240_21
  2065  007D  287F               	goto	u240_20
  2066  007E                     u240_21:
  2067  007E  2884               	goto	i1l1809
  2068  007F                     u240_20:
  2069  007F                     i1l1807:
  2070  007F  084D               	movf	___flmul@bexp,w
  2071  0080  1D03               	btfss	3,2
  2072  0081  2883               	goto	u241_21
  2073  0082  2884               	goto	u241_20
  2074  0083                     u241_21:
  2075  0083  288D               	goto	i1l1813
  2076  0084                     u241_20:
  2077  0084                     i1l1809:
  2078  0084  3000               	movlw	0
  2079  0085  00BD               	movwf	?___flmul+3
  2080  0086  3000               	movlw	0
  2081  0087  00BC               	movwf	?___flmul+2
  2082  0088  3000               	movlw	0
  2083  0089  00BB               	movwf	?___flmul+1
  2084  008A  3000               	movlw	0
  2085  008B  00BA               	movwf	?___flmul
  2086  008C  2B80               	goto	i1l564
  2087  008D                     i1l1813:
  2088  008D  083A               	movf	___flmul@b,w
  2089  008E  00C2               	movwf	??___flmul
  2090  008F  0842               	movf	??___flmul,w
  2091  0090  00F0               	movwf	__Umul8_16@multiplicand
  2092  0091  0840               	movf	___flmul@a+2,w
  2093  0092  120A  158A  2473  120A  118A  	fcall	__Umul8_16
  2094  0097  0871               	movf	?__Umul8_16+1,w
  2095  0098  1283               	bcf	3,5	;RP0=0, select bank0
  2096  0099  1303               	bcf	3,6	;RP1=0, select bank0
  2097  009A  00D3               	movwf	___flmul@temp+1
  2098  009B  0870               	movf	?__Umul8_16,w
  2099  009C  00D2               	movwf	___flmul@temp
  2100  009D                     i1l1815:
  2101  009D  0852               	movf	___flmul@temp,w
  2102  009E  00C2               	movwf	??___flmul
  2103  009F  01C3               	clrf	??___flmul+1
  2104  00A0  01C4               	clrf	??___flmul+2
  2105  00A1  01C5               	clrf	??___flmul+3
  2106  00A2  0845               	movf	??___flmul+3,w
  2107  00A3  00CB               	movwf	___flmul@grs+3
  2108  00A4  0844               	movf	??___flmul+2,w
  2109  00A5  00CA               	movwf	___flmul@grs+2
  2110  00A6  0843               	movf	??___flmul+1,w
  2111  00A7  00C9               	movwf	___flmul@grs+1
  2112  00A8  0842               	movf	??___flmul,w
  2113  00A9  00C8               	movwf	___flmul@grs
  2114  00AA                     i1l1817:
  2115  00AA  0853               	movf	___flmul@temp+1,w
  2116  00AB  00C2               	movwf	??___flmul
  2117  00AC  01C3               	clrf	??___flmul+1
  2118  00AD  01C4               	clrf	??___flmul+2
  2119  00AE  01C5               	clrf	??___flmul+3
  2120  00AF  0845               	movf	??___flmul+3,w
  2121  00B0  00D1               	movwf	___flmul@prod+3
  2122  00B1  0844               	movf	??___flmul+2,w
  2123  00B2  00D0               	movwf	___flmul@prod+2
  2124  00B3  0843               	movf	??___flmul+1,w
  2125  00B4  00CF               	movwf	___flmul@prod+1
  2126  00B5  0842               	movf	??___flmul,w
  2127  00B6  00CE               	movwf	___flmul@prod
  2128  00B7  083B               	movf	___flmul@b+1,w
  2129  00B8  00C2               	movwf	??___flmul
  2130  00B9  0842               	movf	??___flmul,w
  2131  00BA  00F0               	movwf	__Umul8_16@multiplicand
  2132  00BB  083F               	movf	___flmul@a+1,w
  2133  00BC  120A  158A  2473  120A  118A  	fcall	__Umul8_16
  2134  00C1  0871               	movf	?__Umul8_16+1,w
  2135  00C2  1283               	bcf	3,5	;RP0=0, select bank0
  2136  00C3  1303               	bcf	3,6	;RP1=0, select bank0
  2137  00C4  00D3               	movwf	___flmul@temp+1
  2138  00C5  0870               	movf	?__Umul8_16,w
  2139  00C6  00D2               	movwf	___flmul@temp
  2140  00C7                     i1l1819:
  2141  00C7  0852               	movf	___flmul@temp,w
  2142  00C8  00C2               	movwf	??___flmul
  2143  00C9  01C3               	clrf	??___flmul+1
  2144  00CA  01C4               	clrf	??___flmul+2
  2145  00CB  01C5               	clrf	??___flmul+3
  2146  00CC  0842               	movf	??___flmul,w
  2147  00CD  07C8               	addwf	___flmul@grs,f
  2148  00CE  0843               	movf	??___flmul+1,w
  2149  00CF  1103               	clrz
  2150  00D0  1803               	skipnc
  2151  00D1  3E01               	addlw	1
  2152  00D2  1903               	skipnz
  2153  00D3  28D5               	goto	u242_21
  2154  00D4  07C9               	addwf	___flmul@grs+1,f
  2155  00D5                     u242_21:
  2156  00D5  0844               	movf	??___flmul+2,w
  2157  00D6  1103               	clrz
  2158  00D7  1803               	skipnc
  2159  00D8  3E01               	addlw	1
  2160  00D9  1903               	skipnz
  2161  00DA  28DC               	goto	u242_22
  2162  00DB  07CA               	addwf	___flmul@grs+2,f
  2163  00DC                     u242_22:
  2164  00DC  0845               	movf	??___flmul+3,w
  2165  00DD  1103               	clrz
  2166  00DE  1803               	skipnc
  2167  00DF  3E01               	addlw	1
  2168  00E0  1903               	skipnz
  2169  00E1  28E3               	goto	u242_23
  2170  00E2  07CB               	addwf	___flmul@grs+3,f
  2171  00E3                     u242_23:
  2172  00E3                     i1l1821:
  2173  00E3  0853               	movf	___flmul@temp+1,w
  2174  00E4  00C2               	movwf	??___flmul
  2175  00E5  01C3               	clrf	??___flmul+1
  2176  00E6  01C4               	clrf	??___flmul+2
  2177  00E7  01C5               	clrf	??___flmul+3
  2178  00E8  0842               	movf	??___flmul,w
  2179  00E9  07CE               	addwf	___flmul@prod,f
  2180  00EA  0843               	movf	??___flmul+1,w
  2181  00EB  1103               	clrz
  2182  00EC  1803               	skipnc
  2183  00ED  3E01               	addlw	1
  2184  00EE  1903               	skipnz
  2185  00EF  28F1               	goto	u243_21
  2186  00F0  07CF               	addwf	___flmul@prod+1,f
  2187  00F1                     u243_21:
  2188  00F1  0844               	movf	??___flmul+2,w
  2189  00F2  1103               	clrz
  2190  00F3  1803               	skipnc
  2191  00F4  3E01               	addlw	1
  2192  00F5  1903               	skipnz
  2193  00F6  28F8               	goto	u243_22
  2194  00F7  07D0               	addwf	___flmul@prod+2,f
  2195  00F8                     u243_22:
  2196  00F8  0845               	movf	??___flmul+3,w
  2197  00F9  1103               	clrz
  2198  00FA  1803               	skipnc
  2199  00FB  3E01               	addlw	1
  2200  00FC  1903               	skipnz
  2201  00FD  28FF               	goto	u243_23
  2202  00FE  07D1               	addwf	___flmul@prod+3,f
  2203  00FF                     u243_23:
  2204  00FF  083C               	movf	___flmul@b+2,w
  2205  0100  00C2               	movwf	??___flmul
  2206  0101  0842               	movf	??___flmul,w
  2207  0102  00F0               	movwf	__Umul8_16@multiplicand
  2208  0103  083E               	movf	___flmul@a,w
  2209  0104  120A  158A  2473  120A  118A  	fcall	__Umul8_16
  2210  0109  0871               	movf	?__Umul8_16+1,w
  2211  010A  1283               	bcf	3,5	;RP0=0, select bank0
  2212  010B  1303               	bcf	3,6	;RP1=0, select bank0
  2213  010C  00D3               	movwf	___flmul@temp+1
  2214  010D  0870               	movf	?__Umul8_16,w
  2215  010E  00D2               	movwf	___flmul@temp
  2216  010F                     i1l1823:
  2217  010F  0852               	movf	___flmul@temp,w
  2218  0110  00C2               	movwf	??___flmul
  2219  0111  01C3               	clrf	??___flmul+1
  2220  0112  01C4               	clrf	??___flmul+2
  2221  0113  01C5               	clrf	??___flmul+3
  2222  0114  0842               	movf	??___flmul,w
  2223  0115  07C8               	addwf	___flmul@grs,f
  2224  0116  0843               	movf	??___flmul+1,w
  2225  0117  1103               	clrz
  2226  0118  1803               	skipnc
  2227  0119  3E01               	addlw	1
  2228  011A  1903               	skipnz
  2229  011B  291D               	goto	u244_21
  2230  011C  07C9               	addwf	___flmul@grs+1,f
  2231  011D                     u244_21:
  2232  011D  0844               	movf	??___flmul+2,w
  2233  011E  1103               	clrz
  2234  011F  1803               	skipnc
  2235  0120  3E01               	addlw	1
  2236  0121  1903               	skipnz
  2237  0122  2924               	goto	u244_22
  2238  0123  07CA               	addwf	___flmul@grs+2,f
  2239  0124                     u244_22:
  2240  0124  0845               	movf	??___flmul+3,w
  2241  0125  1103               	clrz
  2242  0126  1803               	skipnc
  2243  0127  3E01               	addlw	1
  2244  0128  1903               	skipnz
  2245  0129  292B               	goto	u244_23
  2246  012A  07CB               	addwf	___flmul@grs+3,f
  2247  012B                     u244_23:
  2248  012B                     i1l1825:
  2249  012B  0853               	movf	___flmul@temp+1,w
  2250  012C  00C2               	movwf	??___flmul
  2251  012D  01C3               	clrf	??___flmul+1
  2252  012E  01C4               	clrf	??___flmul+2
  2253  012F  01C5               	clrf	??___flmul+3
  2254  0130  0842               	movf	??___flmul,w
  2255  0131  07CE               	addwf	___flmul@prod,f
  2256  0132  0843               	movf	??___flmul+1,w
  2257  0133  1103               	clrz
  2258  0134  1803               	skipnc
  2259  0135  3E01               	addlw	1
  2260  0136  1903               	skipnz
  2261  0137  2939               	goto	u245_21
  2262  0138  07CF               	addwf	___flmul@prod+1,f
  2263  0139                     u245_21:
  2264  0139  0844               	movf	??___flmul+2,w
  2265  013A  1103               	clrz
  2266  013B  1803               	skipnc
  2267  013C  3E01               	addlw	1
  2268  013D  1903               	skipnz
  2269  013E  2940               	goto	u245_22
  2270  013F  07D0               	addwf	___flmul@prod+2,f
  2271  0140                     u245_22:
  2272  0140  0845               	movf	??___flmul+3,w
  2273  0141  1103               	clrz
  2274  0142  1803               	skipnc
  2275  0143  3E01               	addlw	1
  2276  0144  1903               	skipnz
  2277  0145  2947               	goto	u245_23
  2278  0146  07D1               	addwf	___flmul@prod+3,f
  2279  0147                     u245_23:
  2280  0147                     i1l1827:
  2281  0147  3008               	movlw	8
  2282  0148  00C2               	movwf	??___flmul
  2283  0149                     u246_25:
  2284  0149  1003               	clrc
  2285  014A  0DC8               	rlf	___flmul@grs,f
  2286  014B  0DC9               	rlf	___flmul@grs+1,f
  2287  014C  0DCA               	rlf	___flmul@grs+2,f
  2288  014D  0DCB               	rlf	___flmul@grs+3,f
  2289  014E  0BC2               	decfsz	??___flmul,f
  2290  014F  2949               	goto	u246_25
  2291  0150                     i1l1829:
  2292  0150  083B               	movf	___flmul@b+1,w
  2293  0151  00C2               	movwf	??___flmul
  2294  0152  0842               	movf	??___flmul,w
  2295  0153  00F0               	movwf	__Umul8_16@multiplicand
  2296  0154  083E               	movf	___flmul@a,w
  2297  0155  120A  158A  2473  120A  118A  	fcall	__Umul8_16
  2298  015A  0871               	movf	?__Umul8_16+1,w
  2299  015B  1283               	bcf	3,5	;RP0=0, select bank0
  2300  015C  1303               	bcf	3,6	;RP1=0, select bank0
  2301  015D  00D3               	movwf	___flmul@temp+1
  2302  015E  0870               	movf	?__Umul8_16,w
  2303  015F  00D2               	movwf	___flmul@temp
  2304  0160                     i1l1831:
  2305  0160  0852               	movf	___flmul@temp,w
  2306  0161  00C2               	movwf	??___flmul
  2307  0162  0853               	movf	___flmul@temp+1,w
  2308  0163  00C3               	movwf	??___flmul+1
  2309  0164  01C4               	clrf	??___flmul+2
  2310  0165  01C5               	clrf	??___flmul+3
  2311  0166  0842               	movf	??___flmul,w
  2312  0167  07C8               	addwf	___flmul@grs,f
  2313  0168  0843               	movf	??___flmul+1,w
  2314  0169  1103               	clrz
  2315  016A  1803               	skipnc
  2316  016B  3E01               	addlw	1
  2317  016C  1903               	skipnz
  2318  016D  296F               	goto	u247_21
  2319  016E  07C9               	addwf	___flmul@grs+1,f
  2320  016F                     u247_21:
  2321  016F  0844               	movf	??___flmul+2,w
  2322  0170  1103               	clrz
  2323  0171  1803               	skipnc
  2324  0172  3E01               	addlw	1
  2325  0173  1903               	skipnz
  2326  0174  2976               	goto	u247_22
  2327  0175  07CA               	addwf	___flmul@grs+2,f
  2328  0176                     u247_22:
  2329  0176  0845               	movf	??___flmul+3,w
  2330  0177  1103               	clrz
  2331  0178  1803               	skipnc
  2332  0179  3E01               	addlw	1
  2333  017A  1903               	skipnz
  2334  017B  297D               	goto	u247_23
  2335  017C  07CB               	addwf	___flmul@grs+3,f
  2336  017D                     u247_23:
  2337  017D                     i1l1833:
  2338  017D  083A               	movf	___flmul@b,w
  2339  017E  00C2               	movwf	??___flmul
  2340  017F  0842               	movf	??___flmul,w
  2341  0180  00F0               	movwf	__Umul8_16@multiplicand
  2342  0181  083F               	movf	___flmul@a+1,w
  2343  0182  120A  158A  2473  120A  118A  	fcall	__Umul8_16
  2344  0187  0871               	movf	?__Umul8_16+1,w
  2345  0188  1283               	bcf	3,5	;RP0=0, select bank0
  2346  0189  1303               	bcf	3,6	;RP1=0, select bank0
  2347  018A  00D3               	movwf	___flmul@temp+1
  2348  018B  0870               	movf	?__Umul8_16,w
  2349  018C  00D2               	movwf	___flmul@temp
  2350  018D                     i1l1835:
  2351  018D  0852               	movf	___flmul@temp,w
  2352  018E  00C2               	movwf	??___flmul
  2353  018F  0853               	movf	___flmul@temp+1,w
  2354  0190  00C3               	movwf	??___flmul+1
  2355  0191  01C4               	clrf	??___flmul+2
  2356  0192  01C5               	clrf	??___flmul+3
  2357  0193  0842               	movf	??___flmul,w
  2358  0194  07C8               	addwf	___flmul@grs,f
  2359  0195  0843               	movf	??___flmul+1,w
  2360  0196  1103               	clrz
  2361  0197  1803               	skipnc
  2362  0198  3E01               	addlw	1
  2363  0199  1903               	skipnz
  2364  019A  299C               	goto	u248_21
  2365  019B  07C9               	addwf	___flmul@grs+1,f
  2366  019C                     u248_21:
  2367  019C  0844               	movf	??___flmul+2,w
  2368  019D  1103               	clrz
  2369  019E  1803               	skipnc
  2370  019F  3E01               	addlw	1
  2371  01A0  1903               	skipnz
  2372  01A1  29A3               	goto	u248_22
  2373  01A2  07CA               	addwf	___flmul@grs+2,f
  2374  01A3                     u248_22:
  2375  01A3  0845               	movf	??___flmul+3,w
  2376  01A4  1103               	clrz
  2377  01A5  1803               	skipnc
  2378  01A6  3E01               	addlw	1
  2379  01A7  1903               	skipnz
  2380  01A8  29AA               	goto	u248_23
  2381  01A9  07CB               	addwf	___flmul@grs+3,f
  2382  01AA                     u248_23:
  2383  01AA                     i1l1837:
  2384  01AA  3008               	movlw	8
  2385  01AB  00C2               	movwf	??___flmul
  2386  01AC                     u249_25:
  2387  01AC  1003               	clrc
  2388  01AD  0DC8               	rlf	___flmul@grs,f
  2389  01AE  0DC9               	rlf	___flmul@grs+1,f
  2390  01AF  0DCA               	rlf	___flmul@grs+2,f
  2391  01B0  0DCB               	rlf	___flmul@grs+3,f
  2392  01B1  0BC2               	decfsz	??___flmul,f
  2393  01B2  29AC               	goto	u249_25
  2394  01B3  083A               	movf	___flmul@b,w
  2395  01B4  00C2               	movwf	??___flmul
  2396  01B5  0842               	movf	??___flmul,w
  2397  01B6  00F0               	movwf	__Umul8_16@multiplicand
  2398  01B7  083E               	movf	___flmul@a,w
  2399  01B8  120A  158A  2473  120A  118A  	fcall	__Umul8_16
  2400  01BD  0871               	movf	?__Umul8_16+1,w
  2401  01BE  1283               	bcf	3,5	;RP0=0, select bank0
  2402  01BF  1303               	bcf	3,6	;RP1=0, select bank0
  2403  01C0  00D3               	movwf	___flmul@temp+1
  2404  01C1  0870               	movf	?__Umul8_16,w
  2405  01C2  00D2               	movwf	___flmul@temp
  2406  01C3                     i1l1839:
  2407  01C3  0852               	movf	___flmul@temp,w
  2408  01C4  00C2               	movwf	??___flmul
  2409  01C5  0853               	movf	___flmul@temp+1,w
  2410  01C6  00C3               	movwf	??___flmul+1
  2411  01C7  01C4               	clrf	??___flmul+2
  2412  01C8  01C5               	clrf	??___flmul+3
  2413  01C9  0842               	movf	??___flmul,w
  2414  01CA  07C8               	addwf	___flmul@grs,f
  2415  01CB  0843               	movf	??___flmul+1,w
  2416  01CC  1103               	clrz
  2417  01CD  1803               	skipnc
  2418  01CE  3E01               	addlw	1
  2419  01CF  1903               	skipnz
  2420  01D0  29D2               	goto	u250_21
  2421  01D1  07C9               	addwf	___flmul@grs+1,f
  2422  01D2                     u250_21:
  2423  01D2  0844               	movf	??___flmul+2,w
  2424  01D3  1103               	clrz
  2425  01D4  1803               	skipnc
  2426  01D5  3E01               	addlw	1
  2427  01D6  1903               	skipnz
  2428  01D7  29D9               	goto	u250_22
  2429  01D8  07CA               	addwf	___flmul@grs+2,f
  2430  01D9                     u250_22:
  2431  01D9  0845               	movf	??___flmul+3,w
  2432  01DA  1103               	clrz
  2433  01DB  1803               	skipnc
  2434  01DC  3E01               	addlw	1
  2435  01DD  1903               	skipnz
  2436  01DE  29E0               	goto	u250_23
  2437  01DF  07CB               	addwf	___flmul@grs+3,f
  2438  01E0                     u250_23:
  2439  01E0                     i1l1841:
  2440  01E0  083B               	movf	___flmul@b+1,w
  2441  01E1  00C2               	movwf	??___flmul
  2442  01E2  0842               	movf	??___flmul,w
  2443  01E3  00F0               	movwf	__Umul8_16@multiplicand
  2444  01E4  0840               	movf	___flmul@a+2,w
  2445  01E5  120A  158A  2473  120A  118A  	fcall	__Umul8_16
  2446  01EA  0871               	movf	?__Umul8_16+1,w
  2447  01EB  1283               	bcf	3,5	;RP0=0, select bank0
  2448  01EC  1303               	bcf	3,6	;RP1=0, select bank0
  2449  01ED  00D3               	movwf	___flmul@temp+1
  2450  01EE  0870               	movf	?__Umul8_16,w
  2451  01EF  00D2               	movwf	___flmul@temp
  2452  01F0  0852               	movf	___flmul@temp,w
  2453  01F1  00C2               	movwf	??___flmul
  2454  01F2  0853               	movf	___flmul@temp+1,w
  2455  01F3  00C3               	movwf	??___flmul+1
  2456  01F4  01C4               	clrf	??___flmul+2
  2457  01F5  01C5               	clrf	??___flmul+3
  2458  01F6  0842               	movf	??___flmul,w
  2459  01F7  07CE               	addwf	___flmul@prod,f
  2460  01F8  0843               	movf	??___flmul+1,w
  2461  01F9  1103               	clrz
  2462  01FA  1803               	skipnc
  2463  01FB  3E01               	addlw	1
  2464  01FC  1903               	skipnz
  2465  01FD  29FF               	goto	u251_21
  2466  01FE  07CF               	addwf	___flmul@prod+1,f
  2467  01FF                     u251_21:
  2468  01FF  0844               	movf	??___flmul+2,w
  2469  0200  1103               	clrz
  2470  0201  1803               	skipnc
  2471  0202  3E01               	addlw	1
  2472  0203  1903               	skipnz
  2473  0204  2A06               	goto	u251_22
  2474  0205  07D0               	addwf	___flmul@prod+2,f
  2475  0206                     u251_22:
  2476  0206  0845               	movf	??___flmul+3,w
  2477  0207  1103               	clrz
  2478  0208  1803               	skipnc
  2479  0209  3E01               	addlw	1
  2480  020A  1903               	skipnz
  2481  020B  2A0D               	goto	u251_23
  2482  020C  07D1               	addwf	___flmul@prod+3,f
  2483  020D                     u251_23:
  2484  020D                     i1l1843:
  2485  020D  083C               	movf	___flmul@b+2,w
  2486  020E  00C2               	movwf	??___flmul
  2487  020F  0842               	movf	??___flmul,w
  2488  0210  00F0               	movwf	__Umul8_16@multiplicand
  2489  0211  083F               	movf	___flmul@a+1,w
  2490  0212  120A  158A  2473  120A  118A  	fcall	__Umul8_16
  2491  0217  0871               	movf	?__Umul8_16+1,w
  2492  0218  1283               	bcf	3,5	;RP0=0, select bank0
  2493  0219  1303               	bcf	3,6	;RP1=0, select bank0
  2494  021A  00D3               	movwf	___flmul@temp+1
  2495  021B  0870               	movf	?__Umul8_16,w
  2496  021C  00D2               	movwf	___flmul@temp
  2497  021D                     i1l1845:
  2498  021D  0852               	movf	___flmul@temp,w
  2499  021E  00C2               	movwf	??___flmul
  2500  021F  0853               	movf	___flmul@temp+1,w
  2501  0220  00C3               	movwf	??___flmul+1
  2502  0221  01C4               	clrf	??___flmul+2
  2503  0222  01C5               	clrf	??___flmul+3
  2504  0223  0842               	movf	??___flmul,w
  2505  0224  07CE               	addwf	___flmul@prod,f
  2506  0225  0843               	movf	??___flmul+1,w
  2507  0226  1103               	clrz
  2508  0227  1803               	skipnc
  2509  0228  3E01               	addlw	1
  2510  0229  1903               	skipnz
  2511  022A  2A2C               	goto	u252_21
  2512  022B  07CF               	addwf	___flmul@prod+1,f
  2513  022C                     u252_21:
  2514  022C  0844               	movf	??___flmul+2,w
  2515  022D  1103               	clrz
  2516  022E  1803               	skipnc
  2517  022F  3E01               	addlw	1
  2518  0230  1903               	skipnz
  2519  0231  2A33               	goto	u252_22
  2520  0232  07D0               	addwf	___flmul@prod+2,f
  2521  0233                     u252_22:
  2522  0233  0845               	movf	??___flmul+3,w
  2523  0234  1103               	clrz
  2524  0235  1803               	skipnc
  2525  0236  3E01               	addlw	1
  2526  0237  1903               	skipnz
  2527  0238  2A3A               	goto	u252_23
  2528  0239  07D1               	addwf	___flmul@prod+3,f
  2529  023A                     u252_23:
  2530  023A  083C               	movf	___flmul@b+2,w
  2531  023B  00C2               	movwf	??___flmul
  2532  023C  0842               	movf	??___flmul,w
  2533  023D  00F0               	movwf	__Umul8_16@multiplicand
  2534  023E  0840               	movf	___flmul@a+2,w
  2535  023F  120A  158A  2473  120A  118A  	fcall	__Umul8_16
  2536  0244  0871               	movf	?__Umul8_16+1,w
  2537  0245  1283               	bcf	3,5	;RP0=0, select bank0
  2538  0246  1303               	bcf	3,6	;RP1=0, select bank0
  2539  0247  00D3               	movwf	___flmul@temp+1
  2540  0248  0870               	movf	?__Umul8_16,w
  2541  0249  00D2               	movwf	___flmul@temp
  2542  024A                     i1l1847:
  2543  024A  0852               	movf	___flmul@temp,w
  2544  024B  00C2               	movwf	??___flmul
  2545  024C  0853               	movf	___flmul@temp+1,w
  2546  024D  00C3               	movwf	??___flmul+1
  2547  024E  01C4               	clrf	??___flmul+2
  2548  024F  01C5               	clrf	??___flmul+3
  2549  0250  3008               	movlw	8
  2550  0251                     u253_25:
  2551  0251  1003               	clrc
  2552  0252  0DC2               	rlf	??___flmul,f
  2553  0253  0DC3               	rlf	??___flmul+1,f
  2554  0254  0DC4               	rlf	??___flmul+2,f
  2555  0255  0DC5               	rlf	??___flmul+3,f
  2556  0256                     u253_20:
  2557  0256  3EFF               	addlw	-1
  2558  0257  1D03               	skipz
  2559  0258  2A51               	goto	u253_25
  2560  0259  0842               	movf	??___flmul,w
  2561  025A  07CE               	addwf	___flmul@prod,f
  2562  025B  0843               	movf	??___flmul+1,w
  2563  025C  1103               	clrz
  2564  025D  1803               	skipnc
  2565  025E  3E01               	addlw	1
  2566  025F  1903               	skipnz
  2567  0260  2A62               	goto	u254_21
  2568  0261  07CF               	addwf	___flmul@prod+1,f
  2569  0262                     u254_21:
  2570  0262  0844               	movf	??___flmul+2,w
  2571  0263  1103               	clrz
  2572  0264  1803               	skipnc
  2573  0265  3E01               	addlw	1
  2574  0266  1903               	skipnz
  2575  0267  2A69               	goto	u254_22
  2576  0268  07D0               	addwf	___flmul@prod+2,f
  2577  0269                     u254_22:
  2578  0269  0845               	movf	??___flmul+3,w
  2579  026A  1103               	clrz
  2580  026B  1803               	skipnc
  2581  026C  3E01               	addlw	1
  2582  026D  1903               	skipnz
  2583  026E  2A70               	goto	u254_23
  2584  026F  07D1               	addwf	___flmul@prod+3,f
  2585  0270                     u254_23:
  2586  0270                     i1l1849:
  2587  0270  0848               	movf	___flmul@grs,w
  2588  0271  00C2               	movwf	??___flmul
  2589  0272  0849               	movf	___flmul@grs+1,w
  2590  0273  00C3               	movwf	??___flmul+1
  2591  0274  084A               	movf	___flmul@grs+2,w
  2592  0275  00C4               	movwf	??___flmul+2
  2593  0276  084B               	movf	___flmul@grs+3,w
  2594  0277  00C5               	movwf	??___flmul+3
  2595  0278  3018               	movlw	24
  2596  0279                     u255_25:
  2597  0279  1003               	clrc
  2598  027A  0CC5               	rrf	??___flmul+3,f
  2599  027B  0CC4               	rrf	??___flmul+2,f
  2600  027C  0CC3               	rrf	??___flmul+1,f
  2601  027D  0CC2               	rrf	??___flmul,f
  2602  027E                     u255_20:
  2603  027E  3EFF               	addlw	-1
  2604  027F  1D03               	skipz
  2605  0280  2A79               	goto	u255_25
  2606  0281  0842               	movf	??___flmul,w
  2607  0282  07CE               	addwf	___flmul@prod,f
  2608  0283  0843               	movf	??___flmul+1,w
  2609  0284  1103               	clrz
  2610  0285  1803               	skipnc
  2611  0286  3E01               	addlw	1
  2612  0287  1903               	skipnz
  2613  0288  2A8A               	goto	u256_21
  2614  0289  07CF               	addwf	___flmul@prod+1,f
  2615  028A                     u256_21:
  2616  028A  0844               	movf	??___flmul+2,w
  2617  028B  1103               	clrz
  2618  028C  1803               	skipnc
  2619  028D  3E01               	addlw	1
  2620  028E  1903               	skipnz
  2621  028F  2A91               	goto	u256_22
  2622  0290  07D0               	addwf	___flmul@prod+2,f
  2623  0291                     u256_22:
  2624  0291  0845               	movf	??___flmul+3,w
  2625  0292  1103               	clrz
  2626  0293  1803               	skipnc
  2627  0294  3E01               	addlw	1
  2628  0295  1903               	skipnz
  2629  0296  2A98               	goto	u256_23
  2630  0297  07D1               	addwf	___flmul@prod+3,f
  2631  0298                     u256_23:
  2632  0298                     i1l1851:
  2633  0298  3008               	movlw	8
  2634  0299  00C2               	movwf	??___flmul
  2635  029A                     u257_25:
  2636  029A  1003               	clrc
  2637  029B  0DC8               	rlf	___flmul@grs,f
  2638  029C  0DC9               	rlf	___flmul@grs+1,f
  2639  029D  0DCA               	rlf	___flmul@grs+2,f
  2640  029E  0DCB               	rlf	___flmul@grs+3,f
  2641  029F  0BC2               	decfsz	??___flmul,f
  2642  02A0  2A9A               	goto	u257_25
  2643  02A1                     i1l1853:
  2644  02A1  084D               	movf	___flmul@bexp,w
  2645  02A2  074C               	addwf	___flmul@aexp,w
  2646  02A3  00C2               	movwf	??___flmul
  2647  02A4  01C3               	clrf	??___flmul+1
  2648  02A5  0DC3               	rlf	??___flmul+1,f
  2649  02A6  0842               	movf	??___flmul,w
  2650  02A7  3E82               	addlw	130
  2651  02A8  00D2               	movwf	___flmul@temp
  2652  02A9  0843               	movf	??___flmul+1,w
  2653  02AA  1803               	skipnc
  2654  02AB  3E01               	addlw	1
  2655  02AC  3EFF               	addlw	255
  2656  02AD  00D3               	movwf	___flmul@temp+1
  2657  02AE  2ACC               	goto	i1l1865
  2658  02AF                     i1l1855:
  2659  02AF  3001               	movlw	1
  2660  02B0  00C2               	movwf	??___flmul
  2661  02B1                     u258_25:
  2662  02B1  1003               	clrc
  2663  02B2  0DCE               	rlf	___flmul@prod,f
  2664  02B3  0DCF               	rlf	___flmul@prod+1,f
  2665  02B4  0DD0               	rlf	___flmul@prod+2,f
  2666  02B5  0DD1               	rlf	___flmul@prod+3,f
  2667  02B6  0BC2               	decfsz	??___flmul,f
  2668  02B7  2AB1               	goto	u258_25
  2669  02B8                     i1l1857:
  2670  02B8  1FCB               	btfss	___flmul@grs+3,7
  2671  02B9  2ABB               	goto	u259_21
  2672  02BA  2ABC               	goto	u259_20
  2673  02BB                     u259_21:
  2674  02BB  2ABD               	goto	i1l1861
  2675  02BC                     u259_20:
  2676  02BC                     i1l1859:
  2677  02BC  144E               	bsf	___flmul@prod,0
  2678  02BD                     i1l1861:
  2679  02BD  3001               	movlw	1
  2680  02BE  00C2               	movwf	??___flmul
  2681  02BF                     u260_25:
  2682  02BF  1003               	clrc
  2683  02C0  0DC8               	rlf	___flmul@grs,f
  2684  02C1  0DC9               	rlf	___flmul@grs+1,f
  2685  02C2  0DCA               	rlf	___flmul@grs+2,f
  2686  02C3  0DCB               	rlf	___flmul@grs+3,f
  2687  02C4  0BC2               	decfsz	??___flmul,f
  2688  02C5  2ABF               	goto	u260_25
  2689  02C6                     i1l1863:
  2690  02C6  30FF               	movlw	255
  2691  02C7  07D2               	addwf	___flmul@temp,f
  2692  02C8  1803               	skipnc
  2693  02C9  0AD3               	incf	___flmul@temp+1,f
  2694  02CA  30FF               	movlw	255
  2695  02CB  07D3               	addwf	___flmul@temp+1,f
  2696  02CC                     i1l1865:
  2697  02CC  1FD0               	btfss	___flmul@prod+2,7
  2698  02CD  2ACF               	goto	u261_21
  2699  02CE  2AD0               	goto	u261_20
  2700  02CF                     u261_21:
  2701  02CF  2AAF               	goto	i1l1855
  2702  02D0                     u261_20:
  2703  02D0                     i1l1867:
  2704  02D0  01CC               	clrf	___flmul@aexp
  2705  02D1                     i1l1869:
  2706  02D1  1FCB               	btfss	___flmul@grs+3,7
  2707  02D2  2AD4               	goto	u262_21
  2708  02D3  2AD5               	goto	u262_20
  2709  02D4                     u262_21:
  2710  02D4  2AF1               	goto	i1l1877
  2711  02D5                     u262_20:
  2712  02D5                     i1l1871:
  2713  02D5  30FF               	movlw	255
  2714  02D6  0548               	andwf	___flmul@grs,w
  2715  02D7  00C2               	movwf	??___flmul
  2716  02D8  30FF               	movlw	255
  2717  02D9  0549               	andwf	___flmul@grs+1,w
  2718  02DA  00C3               	movwf	??___flmul+1
  2719  02DB  30FF               	movlw	255
  2720  02DC  054A               	andwf	___flmul@grs+2,w
  2721  02DD  00C4               	movwf	??___flmul+2
  2722  02DE  307F               	movlw	127
  2723  02DF  054B               	andwf	___flmul@grs+3,w
  2724  02E0  00C5               	movwf	??___flmul+3
  2725  02E1  0845               	movf	??___flmul+3,w
  2726  02E2  0444               	iorwf	??___flmul+2,w
  2727  02E3  0443               	iorwf	??___flmul+1,w
  2728  02E4  0442               	iorwf	??___flmul,w
  2729  02E5  1903               	skipnz
  2730  02E6  2AE8               	goto	u263_21
  2731  02E7  2AE9               	goto	u263_20
  2732  02E8                     u263_21:
  2733  02E8  2AEC               	goto	i1l570
  2734  02E9                     u263_20:
  2735  02E9                     i1l1873:
  2736  02E9  01CC               	clrf	___flmul@aexp
  2737  02EA  0ACC               	incf	___flmul@aexp,f
  2738  02EB  2AF1               	goto	i1l1877
  2739  02EC                     i1l570:
  2740  02EC  1C4E               	btfss	___flmul@prod,0
  2741  02ED  2AEF               	goto	u264_21
  2742  02EE  2AF0               	goto	u264_20
  2743  02EF                     u264_21:
  2744  02EF  2AF1               	goto	i1l1877
  2745  02F0                     u264_20:
  2746  02F0  2AE9               	goto	i1l1873
  2747  02F1                     i1l1877:
  2748  02F1  084C               	movf	___flmul@aexp,w
  2749  02F2  1903               	btfsc	3,2
  2750  02F3  2AF5               	goto	u265_21
  2751  02F4  2AF6               	goto	u265_20
  2752  02F5                     u265_21:
  2753  02F5  2B27               	goto	i1l1887
  2754  02F6                     u265_20:
  2755  02F6                     i1l1879:
  2756  02F6  3001               	movlw	1
  2757  02F7  07CE               	addwf	___flmul@prod,f
  2758  02F8  3000               	movlw	0
  2759  02F9  1803               	skipnc
  2760  02FA  3001               	movlw	1
  2761  02FB  07CF               	addwf	___flmul@prod+1,f
  2762  02FC  3000               	movlw	0
  2763  02FD  1803               	skipnc
  2764  02FE  3001               	movlw	1
  2765  02FF  07D0               	addwf	___flmul@prod+2,f
  2766  0300  3000               	movlw	0
  2767  0301  1803               	skipnc
  2768  0302  3001               	movlw	1
  2769  0303  07D1               	addwf	___flmul@prod+3,f
  2770  0304                     i1l1881:
  2771  0304  1C51               	btfss	___flmul@prod+3,0
  2772  0305  2B07               	goto	u266_21
  2773  0306  2B08               	goto	u266_20
  2774  0307                     u266_21:
  2775  0307  2B27               	goto	i1l1887
  2776  0308                     u266_20:
  2777  0308                     i1l1883:
  2778  0308  084E               	movf	___flmul@prod,w
  2779  0309  00C2               	movwf	??___flmul
  2780  030A  084F               	movf	___flmul@prod+1,w
  2781  030B  00C3               	movwf	??___flmul+1
  2782  030C  0850               	movf	___flmul@prod+2,w
  2783  030D  00C4               	movwf	??___flmul+2
  2784  030E  0851               	movf	___flmul@prod+3,w
  2785  030F  00C5               	movwf	??___flmul+3
  2786  0310  3001               	movlw	1
  2787  0311  00C6               	movwf	??___flmul+4
  2788  0312                     u267_25:
  2789  0312  0D45               	rlf	??___flmul+3,w
  2790  0313  0CC5               	rrf	??___flmul+3,f
  2791  0314  0CC4               	rrf	??___flmul+2,f
  2792  0315  0CC3               	rrf	??___flmul+1,f
  2793  0316  0CC2               	rrf	??___flmul,f
  2794  0317                     u267_20:
  2795  0317  0BC6               	decfsz	??___flmul+4,f
  2796  0318  2B12               	goto	u267_25
  2797  0319  0845               	movf	??___flmul+3,w
  2798  031A  00D1               	movwf	___flmul@prod+3
  2799  031B  0844               	movf	??___flmul+2,w
  2800  031C  00D0               	movwf	___flmul@prod+2
  2801  031D  0843               	movf	??___flmul+1,w
  2802  031E  00CF               	movwf	___flmul@prod+1
  2803  031F  0842               	movf	??___flmul,w
  2804  0320  00CE               	movwf	___flmul@prod
  2805  0321                     i1l1885:
  2806  0321  3001               	movlw	1
  2807  0322  07D2               	addwf	___flmul@temp,f
  2808  0323  1803               	skipnc
  2809  0324  0AD3               	incf	___flmul@temp+1,f
  2810  0325  3000               	movlw	0
  2811  0326  07D3               	addwf	___flmul@temp+1,f
  2812  0327                     i1l1887:
  2813  0327  0853               	movf	___flmul@temp+1,w
  2814  0328  3A80               	xorlw	128
  2815  0329  00FF               	movwf	btemp+1
  2816  032A  3080               	movlw	128
  2817  032B  027F               	subwf	btemp+1,w
  2818  032C  1D03               	skipz
  2819  032D  2B30               	goto	u268_25
  2820  032E  30FF               	movlw	255
  2821  032F  0252               	subwf	___flmul@temp,w
  2822  0330                     u268_25:
  2823  0330  1C03               	skipc
  2824  0331  2B33               	goto	u268_21
  2825  0332  2B34               	goto	u268_20
  2826  0333                     u268_21:
  2827  0333  2B3F               	goto	i1l1891
  2828  0334                     u268_20:
  2829  0334                     i1l1889:
  2830  0334  307F               	movlw	127
  2831  0335  1283               	bcf	3,5	;RP0=0, select bank0
  2832  0336  1303               	bcf	3,6	;RP1=0, select bank0
  2833  0337  00D1               	movwf	___flmul@prod+3
  2834  0338  3080               	movlw	128
  2835  0339  00D0               	movwf	___flmul@prod+2
  2836  033A  3000               	movlw	0
  2837  033B  00CF               	movwf	___flmul@prod+1
  2838  033C  3000               	movlw	0
  2839  033D  00CE               	movwf	___flmul@prod
  2840  033E  2B74               	goto	i1l576
  2841  033F                     i1l1891:
  2842  033F  1283               	bcf	3,5	;RP0=0, select bank0
  2843  0340  1303               	bcf	3,6	;RP1=0, select bank0
  2844  0341  0853               	movf	___flmul@temp+1,w
  2845  0342  3A80               	xorlw	128
  2846  0343  00FF               	movwf	btemp+1
  2847  0344  3080               	movlw	128
  2848  0345  027F               	subwf	btemp+1,w
  2849  0346  1D03               	skipz
  2850  0347  2B4A               	goto	u269_25
  2851  0348  3001               	movlw	1
  2852  0349  0252               	subwf	___flmul@temp,w
  2853  034A                     u269_25:
  2854  034A  1803               	skipnc
  2855  034B  2B4D               	goto	u269_21
  2856  034C  2B4E               	goto	u269_20
  2857  034D                     u269_21:
  2858  034D  2B5A               	goto	i1l1897
  2859  034E                     u269_20:
  2860  034E                     i1l1893:
  2861  034E  3000               	movlw	0
  2862  034F  1283               	bcf	3,5	;RP0=0, select bank0
  2863  0350  1303               	bcf	3,6	;RP1=0, select bank0
  2864  0351  00D1               	movwf	___flmul@prod+3
  2865  0352  3000               	movlw	0
  2866  0353  00D0               	movwf	___flmul@prod+2
  2867  0354  3000               	movlw	0
  2868  0355  00CF               	movwf	___flmul@prod+1
  2869  0356  3000               	movlw	0
  2870  0357  00CE               	movwf	___flmul@prod
  2871  0358                     i1l1895:
  2872  0358  01C7               	clrf	___flmul@sign
  2873  0359  2B74               	goto	i1l576
  2874  035A                     i1l1897:
  2875  035A  1283               	bcf	3,5	;RP0=0, select bank0
  2876  035B  1303               	bcf	3,6	;RP1=0, select bank0
  2877  035C  0852               	movf	___flmul@temp,w
  2878  035D  00C2               	movwf	??___flmul
  2879  035E  0842               	movf	??___flmul,w
  2880  035F  00CD               	movwf	___flmul@bexp
  2881  0360  30FF               	movlw	255
  2882  0361  05CE               	andwf	___flmul@prod,f
  2883  0362  30FF               	movlw	255
  2884  0363  05CF               	andwf	___flmul@prod+1,f
  2885  0364  307F               	movlw	127
  2886  0365  05D0               	andwf	___flmul@prod+2,f
  2887  0366  3000               	movlw	0
  2888  0367  05D1               	andwf	___flmul@prod+3,f
  2889  0368                     i1l1899:
  2890  0368  1C4D               	btfss	___flmul@bexp,0
  2891  0369  2B6B               	goto	u270_21
  2892  036A  2B6C               	goto	u270_20
  2893  036B                     u270_21:
  2894  036B  2B6D               	goto	i1l1903
  2895  036C                     u270_20:
  2896  036C                     i1l1901:
  2897  036C  17D0               	bsf	___flmul@prod+2,7
  2898  036D                     i1l1903:
  2899  036D  084D               	movf	___flmul@bexp,w
  2900  036E  00C2               	movwf	??___flmul
  2901  036F  1003               	clrc
  2902  0370  0C42               	rrf	??___flmul,w
  2903  0371  00C3               	movwf	??___flmul+1
  2904  0372  0843               	movf	??___flmul+1,w
  2905  0373  00D1               	movwf	___flmul@prod+3
  2906  0374                     i1l576:
  2907  0374  0847               	movf	___flmul@sign,w
  2908  0375  00C2               	movwf	??___flmul
  2909  0376  0842               	movf	??___flmul,w
  2910  0377  04D1               	iorwf	___flmul@prod+3,f
  2911  0378                     i1l1905:
  2912  0378  0851               	movf	___flmul@prod+3,w
  2913  0379  00BD               	movwf	?___flmul+3
  2914  037A  0850               	movf	___flmul@prod+2,w
  2915  037B  00BC               	movwf	?___flmul+2
  2916  037C  084F               	movf	___flmul@prod+1,w
  2917  037D  00BB               	movwf	?___flmul+1
  2918  037E  084E               	movf	___flmul@prod,w
  2919  037F  00BA               	movwf	?___flmul
  2920  0380                     i1l564:
  2921  0380  0008               	return
  2922  0381                     __end_of___flmul:
  2923                           
  2924                           	psect	text7
  2925  0C73                     __ptext7:	
  2926 ;; *************** function __Umul8_16 *****************
  2927 ;; Defined at:
  2928 ;;		line 4 in file "C:\Program Files\Microchip\xc8\v2.35\pic\sources\c90\common\Umul8_16.c"
  2929 ;; Parameters:    Size  Location     Type
  2930 ;;  multiplier      1    wreg     unsigned char 
  2931 ;;  multiplicand    1    0[COMMON] unsigned char 
  2932 ;; Auto vars:     Size  Location     Type
  2933 ;;  multiplier      1    8[COMMON] unsigned char 
  2934 ;;  word_mpld       2    6[COMMON] unsigned int 
  2935 ;;  product         2    4[COMMON] unsigned int 
  2936 ;; Return value:  Size  Location     Type
  2937 ;;                  2    0[COMMON] unsigned int 
  2938 ;; Registers used:
  2939 ;;		wreg, status,2, status,0
  2940 ;; Tracked objects:
  2941 ;;		On entry : 0/0
  2942 ;;		On exit  : 0/0
  2943 ;;		Unchanged: 0/0
  2944 ;; Data sizes:     COMMON   BANK0   BANK1   BANK3   BANK2
  2945 ;;      Params:         2       0       0       0       0
  2946 ;;      Locals:         5       0       0       0       0
  2947 ;;      Temps:          2       0       0       0       0
  2948 ;;      Totals:         9       0       0       0       0
  2949 ;;Total ram usage:        9 bytes
  2950 ;; Hardware stack levels used: 1
  2951 ;; This function calls:
  2952 ;;		Nothing
  2953 ;; This function is called by:
  2954 ;;		___flmul
  2955 ;; This function uses a non-reentrant model
  2956 ;;
  2957                           
  2958  0C73                     __Umul8_16:	
  2959                           ;psect for function __Umul8_16
  2960                           
  2961                           
  2962                           ;incstack = 0
  2963                           ; Regs used in __Umul8_16: [wreg+status,2+status,0]
  2964                           ;__Umul8_16@multiplier stored from wreg
  2965  0C73  00F8               	movwf	__Umul8_16@multiplier
  2966  0C74                     i1l1383:
  2967  0C74  01F4               	clrf	__Umul8_16@product
  2968  0C75  01F5               	clrf	__Umul8_16@product+1
  2969  0C76                     i1l1385:
  2970  0C76  0870               	movf	__Umul8_16@multiplicand,w
  2971  0C77  00F2               	movwf	??__Umul8_16
  2972  0C78  01F3               	clrf	??__Umul8_16+1
  2973  0C79  0872               	movf	??__Umul8_16,w
  2974  0C7A  00F6               	movwf	__Umul8_16@word_mpld
  2975  0C7B  0873               	movf	??__Umul8_16+1,w
  2976  0C7C  00F7               	movwf	__Umul8_16@word_mpld+1
  2977  0C7D                     i1l1387:
  2978  0C7D  1C78               	btfss	__Umul8_16@multiplier,0
  2979  0C7E  2C80               	goto	u146_21
  2980  0C7F  2C81               	goto	u146_20
  2981  0C80                     u146_21:
  2982  0C80  2C87               	goto	i1l583
  2983  0C81                     u146_20:
  2984  0C81                     i1l1389:
  2985  0C81  0876               	movf	__Umul8_16@word_mpld,w
  2986  0C82  07F4               	addwf	__Umul8_16@product,f
  2987  0C83  1803               	skipnc
  2988  0C84  0AF5               	incf	__Umul8_16@product+1,f
  2989  0C85  0877               	movf	__Umul8_16@word_mpld+1,w
  2990  0C86  07F5               	addwf	__Umul8_16@product+1,f
  2991  0C87                     i1l583:
  2992  0C87  3001               	movlw	1
  2993  0C88                     u147_25:
  2994  0C88  1003               	clrc
  2995  0C89  0DF6               	rlf	__Umul8_16@word_mpld,f
  2996  0C8A  0DF7               	rlf	__Umul8_16@word_mpld+1,f
  2997  0C8B  3EFF               	addlw	-1
  2998  0C8C  1D03               	skipz
  2999  0C8D  2C88               	goto	u147_25
  3000  0C8E  1003               	clrc
  3001  0C8F  0CF8               	rrf	__Umul8_16@multiplier,f
  3002  0C90                     i1l1391:
  3003  0C90  0878               	movf	__Umul8_16@multiplier,w
  3004  0C91  1D03               	btfss	3,2
  3005  0C92  2C94               	goto	u148_21
  3006  0C93  2C95               	goto	u148_20
  3007  0C94                     u148_21:
  3008  0C94  2C7D               	goto	i1l1387
  3009  0C95                     u148_20:
  3010  0C95                     i1l1393:
  3011  0C95  0875               	movf	__Umul8_16@product+1,w
  3012  0C96  00F1               	movwf	?__Umul8_16+1
  3013  0C97  0874               	movf	__Umul8_16@product,w
  3014  0C98  00F0               	movwf	?__Umul8_16
  3015  0C99                     i1l585:
  3016  0C99  0008               	return
  3017  0C9A                     __end_of__Umul8_16:
  3018                           
  3019                           	psect	text8
  3020  0609                     __ptext8:	
  3021 ;; *************** function ___fldiv *****************
  3022 ;; Defined at:
  3023 ;;		line 8 in file "C:\Program Files\Microchip\xc8\v2.35\pic\sources\c90\common\sprcdiv.c"
  3024 ;; Parameters:    Size  Location     Type
  3025 ;;  a               4    0[BANK0 ] unsigned int 
  3026 ;;  b               4    4[BANK0 ] unsigned int 
  3027 ;; Auto vars:     Size  Location     Type
  3028 ;;  grs             4   20[BANK0 ] unsigned long 
  3029 ;;  rem             4   13[BANK0 ] unsigned long 
  3030 ;;  new_exp         2   18[BANK0 ] int 
  3031 ;;  aexp            1   25[BANK0 ] unsigned char 
  3032 ;;  bexp            1   24[BANK0 ] unsigned char 
  3033 ;;  sign            1   17[BANK0 ] unsigned char 
  3034 ;; Return value:  Size  Location     Type
  3035 ;;                  4    0[BANK0 ] unsigned char 
  3036 ;; Registers used:
  3037 ;;		wreg, status,2, status,0, btemp+1
  3038 ;; Tracked objects:
  3039 ;;		On entry : 0/0
  3040 ;;		On exit  : 0/0
  3041 ;;		Unchanged: 0/0
  3042 ;; Data sizes:     COMMON   BANK0   BANK1   BANK3   BANK2
  3043 ;;      Params:         0       8       0       0       0
  3044 ;;      Locals:         0      13       0       0       0
  3045 ;;      Temps:          0       5       0       0       0
  3046 ;;      Totals:         0      26       0       0       0
  3047 ;;Total ram usage:       26 bytes
  3048 ;; Hardware stack levels used: 1
  3049 ;; This function calls:
  3050 ;;		Nothing
  3051 ;; This function is called by:
  3052 ;;		_map
  3053 ;; This function uses a non-reentrant model
  3054 ;;
  3055                           
  3056  0609                     ___fldiv:	
  3057                           ;psect for function ___fldiv
  3058                           
  3059  0609                     i1l1627:	
  3060                           ;incstack = 0
  3061                           ; Regs used in ___fldiv: [wreg+status,2+status,0+btemp+1]
  3062                           
  3063  0609  1283               	bcf	3,5	;RP0=0, select bank0
  3064  060A  1303               	bcf	3,6	;RP1=0, select bank0
  3065  060B  0827               	movf	___fldiv@b+3,w
  3066  060C  3980               	andlw	128
  3067  060D  00A8               	movwf	??___fldiv
  3068  060E  0828               	movf	??___fldiv,w
  3069  060F  00B1               	movwf	___fldiv@sign
  3070  0610                     i1l1629:
  3071  0610  0827               	movf	___fldiv@b+3,w
  3072  0611  00A8               	movwf	??___fldiv
  3073  0612  0728               	addwf	??___fldiv,w
  3074  0613  00A9               	movwf	??___fldiv+1
  3075  0614  0829               	movf	??___fldiv+1,w
  3076  0615  00B8               	movwf	___fldiv@bexp
  3077  0616                     i1l1631:
  3078  0616  1FA6               	btfss	___fldiv@b+2,7
  3079  0617  2E19               	goto	u205_21
  3080  0618  2E1A               	goto	u205_20
  3081  0619                     u205_21:
  3082  0619  2E1B               	goto	i1l1635
  3083  061A                     u205_20:
  3084  061A                     i1l1633:
  3085  061A  1438               	bsf	___fldiv@bexp,0
  3086  061B                     i1l1635:
  3087  061B  0838               	movf	___fldiv@bexp,w
  3088  061C  1903               	btfsc	3,2
  3089  061D  2E1F               	goto	u206_21
  3090  061E  2E20               	goto	u206_20
  3091  061F                     u206_21:
  3092  061F  2E30               	goto	i1l1645
  3093  0620                     u206_20:
  3094  0620                     i1l1637:
  3095  0620  0A38               	incf	___fldiv@bexp,w
  3096  0621  1D03               	btfss	3,2
  3097  0622  2E24               	goto	u207_21
  3098  0623  2E25               	goto	u207_20
  3099  0624                     u207_21:
  3100  0624  2E2D               	goto	i1l1641
  3101  0625                     u207_20:
  3102  0625                     i1l1639:
  3103  0625  3000               	movlw	0
  3104  0626  00A7               	movwf	___fldiv@b+3
  3105  0627  3000               	movlw	0
  3106  0628  00A6               	movwf	___fldiv@b+2
  3107  0629  3000               	movlw	0
  3108  062A  00A5               	movwf	___fldiv@b+1
  3109  062B  3000               	movlw	0
  3110  062C  00A4               	movwf	___fldiv@b
  3111  062D                     i1l1641:
  3112  062D  17A6               	bsf	___fldiv@b+2,7
  3113  062E                     i1l1643:
  3114  062E  01A7               	clrf	___fldiv@b+3
  3115  062F  2E38               	goto	i1l1647
  3116  0630                     i1l1645:
  3117  0630  3000               	movlw	0
  3118  0631  00A7               	movwf	___fldiv@b+3
  3119  0632  3000               	movlw	0
  3120  0633  00A6               	movwf	___fldiv@b+2
  3121  0634  3000               	movlw	0
  3122  0635  00A5               	movwf	___fldiv@b+1
  3123  0636  3000               	movlw	0
  3124  0637  00A4               	movwf	___fldiv@b
  3125  0638                     i1l1647:
  3126  0638  0823               	movf	___fldiv@a+3,w
  3127  0639  3980               	andlw	128
  3128  063A  00A8               	movwf	??___fldiv
  3129  063B  0828               	movf	??___fldiv,w
  3130  063C  06B1               	xorwf	___fldiv@sign,f
  3131  063D                     i1l1649:
  3132  063D  0823               	movf	___fldiv@a+3,w
  3133  063E  00A8               	movwf	??___fldiv
  3134  063F  0728               	addwf	??___fldiv,w
  3135  0640  00A9               	movwf	??___fldiv+1
  3136  0641  0829               	movf	??___fldiv+1,w
  3137  0642  00B9               	movwf	___fldiv@aexp
  3138  0643                     i1l1651:
  3139  0643  1FA2               	btfss	___fldiv@a+2,7
  3140  0644  2E46               	goto	u208_21
  3141  0645  2E47               	goto	u208_20
  3142  0646                     u208_21:
  3143  0646  2E48               	goto	i1l1655
  3144  0647                     u208_20:
  3145  0647                     i1l1653:
  3146  0647  1439               	bsf	___fldiv@aexp,0
  3147  0648                     i1l1655:
  3148  0648  0839               	movf	___fldiv@aexp,w
  3149  0649  1903               	btfsc	3,2
  3150  064A  2E4C               	goto	u209_21
  3151  064B  2E4D               	goto	u209_20
  3152  064C                     u209_21:
  3153  064C  2E5D               	goto	i1l1665
  3154  064D                     u209_20:
  3155  064D                     i1l1657:
  3156  064D  0A39               	incf	___fldiv@aexp,w
  3157  064E  1D03               	btfss	3,2
  3158  064F  2E51               	goto	u210_21
  3159  0650  2E52               	goto	u210_20
  3160  0651                     u210_21:
  3161  0651  2E5A               	goto	i1l1661
  3162  0652                     u210_20:
  3163  0652                     i1l1659:
  3164  0652  3000               	movlw	0
  3165  0653  00A3               	movwf	___fldiv@a+3
  3166  0654  3000               	movlw	0
  3167  0655  00A2               	movwf	___fldiv@a+2
  3168  0656  3000               	movlw	0
  3169  0657  00A1               	movwf	___fldiv@a+1
  3170  0658  3000               	movlw	0
  3171  0659  00A0               	movwf	___fldiv@a
  3172  065A                     i1l1661:
  3173  065A  17A2               	bsf	___fldiv@a+2,7
  3174  065B                     i1l1663:
  3175  065B  01A3               	clrf	___fldiv@a+3
  3176  065C  2E65               	goto	i1l524
  3177  065D                     i1l1665:
  3178  065D  3000               	movlw	0
  3179  065E  00A3               	movwf	___fldiv@a+3
  3180  065F  3000               	movlw	0
  3181  0660  00A2               	movwf	___fldiv@a+2
  3182  0661  3000               	movlw	0
  3183  0662  00A1               	movwf	___fldiv@a+1
  3184  0663  3000               	movlw	0
  3185  0664  00A0               	movwf	___fldiv@a
  3186  0665                     i1l524:
  3187  0665  0823               	movf	___fldiv@a+3,w
  3188  0666  0422               	iorwf	___fldiv@a+2,w
  3189  0667  0421               	iorwf	___fldiv@a+1,w
  3190  0668  0420               	iorwf	___fldiv@a,w
  3191  0669  1D03               	skipz
  3192  066A  2E6C               	goto	u211_21
  3193  066B  2E6D               	goto	u211_20
  3194  066C                     u211_21:
  3195  066C  2E86               	goto	i1l1675
  3196  066D                     u211_20:
  3197  066D                     i1l1667:
  3198  066D  3000               	movlw	0
  3199  066E  00A7               	movwf	___fldiv@b+3
  3200  066F  3000               	movlw	0
  3201  0670  00A6               	movwf	___fldiv@b+2
  3202  0671  3000               	movlw	0
  3203  0672  00A5               	movwf	___fldiv@b+1
  3204  0673  3000               	movlw	0
  3205  0674  00A4               	movwf	___fldiv@b
  3206  0675  3080               	movlw	128
  3207  0676  04A6               	iorwf	___fldiv@b+2,f
  3208  0677  307F               	movlw	127
  3209  0678  04A7               	iorwf	___fldiv@b+3,f
  3210  0679                     i1l1669:
  3211  0679  0831               	movf	___fldiv@sign,w
  3212  067A  00A8               	movwf	??___fldiv
  3213  067B  0828               	movf	??___fldiv,w
  3214  067C  04A7               	iorwf	___fldiv@b+3,f
  3215  067D                     i1l1671:
  3216  067D  0827               	movf	___fldiv@b+3,w
  3217  067E  00A3               	movwf	?___fldiv+3
  3218  067F  0826               	movf	___fldiv@b+2,w
  3219  0680  00A2               	movwf	?___fldiv+2
  3220  0681  0825               	movf	___fldiv@b+1,w
  3221  0682  00A1               	movwf	?___fldiv+1
  3222  0683  0824               	movf	___fldiv@b,w
  3223  0684  00A0               	movwf	?___fldiv
  3224  0685  2FE5               	goto	i1l526
  3225  0686                     i1l1675:
  3226  0686  0838               	movf	___fldiv@bexp,w
  3227  0687  1D03               	btfss	3,2
  3228  0688  2E8A               	goto	u212_21
  3229  0689  2E8B               	goto	u212_20
  3230  068A                     u212_21:
  3231  068A  2E94               	goto	i1l1681
  3232  068B                     u212_20:
  3233  068B                     i1l1677:
  3234  068B  3000               	movlw	0
  3235  068C  00A3               	movwf	?___fldiv+3
  3236  068D  3000               	movlw	0
  3237  068E  00A2               	movwf	?___fldiv+2
  3238  068F  3000               	movlw	0
  3239  0690  00A1               	movwf	?___fldiv+1
  3240  0691  3000               	movlw	0
  3241  0692  00A0               	movwf	?___fldiv
  3242  0693  2FE5               	goto	i1l526
  3243  0694                     i1l1681:
  3244  0694  0838               	movf	___fldiv@bexp,w
  3245  0695  00A8               	movwf	??___fldiv
  3246  0696  01A9               	clrf	??___fldiv+1
  3247  0697  0829               	movf	??___fldiv+1,w
  3248  0698  00AB               	movwf	??___fldiv+3
  3249  0699  0839               	movf	___fldiv@aexp,w
  3250  069A  0228               	subwf	??___fldiv,w
  3251  069B  00AA               	movwf	??___fldiv+2
  3252  069C  1C03               	skipc
  3253  069D  03AB               	decf	??___fldiv+3,f
  3254  069E  082A               	movf	??___fldiv+2,w
  3255  069F  3E7F               	addlw	127
  3256  06A0  00B2               	movwf	___fldiv@new_exp
  3257  06A1  082B               	movf	??___fldiv+3,w
  3258  06A2  1803               	skipnc
  3259  06A3  3E01               	addlw	1
  3260  06A4  3E00               	addlw	0
  3261  06A5  00B3               	movwf	___fldiv@new_exp+1
  3262  06A6                     i1l1683:
  3263  06A6  0827               	movf	___fldiv@b+3,w
  3264  06A7  00B0               	movwf	___fldiv@rem+3
  3265  06A8  0826               	movf	___fldiv@b+2,w
  3266  06A9  00AF               	movwf	___fldiv@rem+2
  3267  06AA  0825               	movf	___fldiv@b+1,w
  3268  06AB  00AE               	movwf	___fldiv@rem+1
  3269  06AC  0824               	movf	___fldiv@b,w
  3270  06AD  00AD               	movwf	___fldiv@rem
  3271  06AE                     i1l1685:
  3272  06AE  3000               	movlw	0
  3273  06AF  00A7               	movwf	___fldiv@b+3
  3274  06B0  3000               	movlw	0
  3275  06B1  00A6               	movwf	___fldiv@b+2
  3276  06B2  3000               	movlw	0
  3277  06B3  00A5               	movwf	___fldiv@b+1
  3278  06B4  3000               	movlw	0
  3279  06B5  00A4               	movwf	___fldiv@b
  3280  06B6                     i1l1687:
  3281  06B6  3000               	movlw	0
  3282  06B7  00B7               	movwf	___fldiv@grs+3
  3283  06B8  3000               	movlw	0
  3284  06B9  00B6               	movwf	___fldiv@grs+2
  3285  06BA  3000               	movlw	0
  3286  06BB  00B5               	movwf	___fldiv@grs+1
  3287  06BC  3000               	movlw	0
  3288  06BD  00B4               	movwf	___fldiv@grs
  3289  06BE                     i1l1689:
  3290  06BE  01B9               	clrf	___fldiv@aexp
  3291  06BF  2F0A               	goto	i1l1709
  3292  06C0                     i1l1691:
  3293  06C0  0839               	movf	___fldiv@aexp,w
  3294  06C1  1903               	btfsc	3,2
  3295  06C2  2EC4               	goto	u213_21
  3296  06C3  2EC5               	goto	u213_20
  3297  06C4                     u213_21:
  3298  06C4  2EE5               	goto	i1l1701
  3299  06C5                     u213_20:
  3300  06C5                     i1l1693:
  3301  06C5  3001               	movlw	1
  3302  06C6  00A8               	movwf	??___fldiv
  3303  06C7                     u214_25:
  3304  06C7  1003               	clrc
  3305  06C8  0DAD               	rlf	___fldiv@rem,f
  3306  06C9  0DAE               	rlf	___fldiv@rem+1,f
  3307  06CA  0DAF               	rlf	___fldiv@rem+2,f
  3308  06CB  0DB0               	rlf	___fldiv@rem+3,f
  3309  06CC  0BA8               	decfsz	??___fldiv,f
  3310  06CD  2EC7               	goto	u214_25
  3311  06CE  3001               	movlw	1
  3312  06CF  00A8               	movwf	??___fldiv
  3313  06D0                     u215_25:
  3314  06D0  1003               	clrc
  3315  06D1  0DA4               	rlf	___fldiv@b,f
  3316  06D2  0DA5               	rlf	___fldiv@b+1,f
  3317  06D3  0DA6               	rlf	___fldiv@b+2,f
  3318  06D4  0DA7               	rlf	___fldiv@b+3,f
  3319  06D5  0BA8               	decfsz	??___fldiv,f
  3320  06D6  2ED0               	goto	u215_25
  3321  06D7                     i1l1695:
  3322  06D7  1FB7               	btfss	___fldiv@grs+3,7
  3323  06D8  2EDA               	goto	u216_21
  3324  06D9  2EDB               	goto	u216_20
  3325  06DA                     u216_21:
  3326  06DA  2EDC               	goto	i1l1699
  3327  06DB                     u216_20:
  3328  06DB                     i1l1697:
  3329  06DB  1424               	bsf	___fldiv@b,0
  3330  06DC                     i1l1699:
  3331  06DC  3001               	movlw	1
  3332  06DD  00A8               	movwf	??___fldiv
  3333  06DE                     u217_25:
  3334  06DE  1003               	clrc
  3335  06DF  0DB4               	rlf	___fldiv@grs,f
  3336  06E0  0DB5               	rlf	___fldiv@grs+1,f
  3337  06E1  0DB6               	rlf	___fldiv@grs+2,f
  3338  06E2  0DB7               	rlf	___fldiv@grs+3,f
  3339  06E3  0BA8               	decfsz	??___fldiv,f
  3340  06E4  2EDE               	goto	u217_25
  3341  06E5                     i1l1701:
  3342  06E5  0823               	movf	___fldiv@a+3,w
  3343  06E6  0230               	subwf	___fldiv@rem+3,w
  3344  06E7  1D03               	skipz
  3345  06E8  2EF3               	goto	u218_25
  3346  06E9  0822               	movf	___fldiv@a+2,w
  3347  06EA  022F               	subwf	___fldiv@rem+2,w
  3348  06EB  1D03               	skipz
  3349  06EC  2EF3               	goto	u218_25
  3350  06ED  0821               	movf	___fldiv@a+1,w
  3351  06EE  022E               	subwf	___fldiv@rem+1,w
  3352  06EF  1D03               	skipz
  3353  06F0  2EF3               	goto	u218_25
  3354  06F1  0820               	movf	___fldiv@a,w
  3355  06F2  022D               	subwf	___fldiv@rem,w
  3356  06F3                     u218_25:
  3357  06F3  1C03               	skipc
  3358  06F4  2EF6               	goto	u218_21
  3359  06F5  2EF7               	goto	u218_20
  3360  06F6                     u218_21:
  3361  06F6  2F06               	goto	i1l1707
  3362  06F7                     u218_20:
  3363  06F7                     i1l1703:
  3364  06F7  1737               	bsf	___fldiv@grs+3,6
  3365  06F8                     i1l1705:
  3366  06F8  0820               	movf	___fldiv@a,w
  3367  06F9  02AD               	subwf	___fldiv@rem,f
  3368  06FA  0821               	movf	___fldiv@a+1,w
  3369  06FB  1C03               	skipc
  3370  06FC  0F21               	incfsz	___fldiv@a+1,w
  3371  06FD  02AE               	subwf	___fldiv@rem+1,f
  3372  06FE  0822               	movf	___fldiv@a+2,w
  3373  06FF  1C03               	skipc
  3374  0700  0F22               	incfsz	___fldiv@a+2,w
  3375  0701  02AF               	subwf	___fldiv@rem+2,f
  3376  0702  0823               	movf	___fldiv@a+3,w
  3377  0703  1C03               	skipc
  3378  0704  0F23               	incfsz	___fldiv@a+3,w
  3379  0705  02B0               	subwf	___fldiv@rem+3,f
  3380  0706                     i1l1707:
  3381  0706  3001               	movlw	1
  3382  0707  00A8               	movwf	??___fldiv
  3383  0708  0828               	movf	??___fldiv,w
  3384  0709  07B9               	addwf	___fldiv@aexp,f
  3385  070A                     i1l1709:
  3386  070A  301A               	movlw	26
  3387  070B  0239               	subwf	___fldiv@aexp,w
  3388  070C  1C03               	skipc
  3389  070D  2F0F               	goto	u219_21
  3390  070E  2F10               	goto	u219_20
  3391  070F                     u219_21:
  3392  070F  2EC0               	goto	i1l1691
  3393  0710                     u219_20:
  3394  0710                     i1l1711:
  3395  0710  0830               	movf	___fldiv@rem+3,w
  3396  0711  042F               	iorwf	___fldiv@rem+2,w
  3397  0712  042E               	iorwf	___fldiv@rem+1,w
  3398  0713  042D               	iorwf	___fldiv@rem,w
  3399  0714  1903               	skipnz
  3400  0715  2F17               	goto	u220_21
  3401  0716  2F18               	goto	u220_20
  3402  0717                     u220_21:
  3403  0717  2F37               	goto	i1l1725
  3404  0718                     u220_20:
  3405  0718                     i1l1713:
  3406  0718  1434               	bsf	___fldiv@grs,0
  3407  0719  2F37               	goto	i1l1725
  3408  071A                     i1l1715:
  3409  071A  3001               	movlw	1
  3410  071B  00A8               	movwf	??___fldiv
  3411  071C                     u221_25:
  3412  071C  1003               	clrc
  3413  071D  0DA4               	rlf	___fldiv@b,f
  3414  071E  0DA5               	rlf	___fldiv@b+1,f
  3415  071F  0DA6               	rlf	___fldiv@b+2,f
  3416  0720  0DA7               	rlf	___fldiv@b+3,f
  3417  0721  0BA8               	decfsz	??___fldiv,f
  3418  0722  2F1C               	goto	u221_25
  3419  0723                     i1l1717:
  3420  0723  1FB7               	btfss	___fldiv@grs+3,7
  3421  0724  2F26               	goto	u222_21
  3422  0725  2F27               	goto	u222_20
  3423  0726                     u222_21:
  3424  0726  2F28               	goto	i1l1721
  3425  0727                     u222_20:
  3426  0727                     i1l1719:
  3427  0727  1424               	bsf	___fldiv@b,0
  3428  0728                     i1l1721:
  3429  0728  3001               	movlw	1
  3430  0729  00A8               	movwf	??___fldiv
  3431  072A                     u223_25:
  3432  072A  1003               	clrc
  3433  072B  0DB4               	rlf	___fldiv@grs,f
  3434  072C  0DB5               	rlf	___fldiv@grs+1,f
  3435  072D  0DB6               	rlf	___fldiv@grs+2,f
  3436  072E  0DB7               	rlf	___fldiv@grs+3,f
  3437  072F  0BA8               	decfsz	??___fldiv,f
  3438  0730  2F2A               	goto	u223_25
  3439  0731                     i1l1723:
  3440  0731  30FF               	movlw	255
  3441  0732  07B2               	addwf	___fldiv@new_exp,f
  3442  0733  1803               	skipnc
  3443  0734  0AB3               	incf	___fldiv@new_exp+1,f
  3444  0735  30FF               	movlw	255
  3445  0736  07B3               	addwf	___fldiv@new_exp+1,f
  3446  0737                     i1l1725:
  3447  0737  1FA6               	btfss	___fldiv@b+2,7
  3448  0738  2F3A               	goto	u224_21
  3449  0739  2F3B               	goto	u224_20
  3450  073A                     u224_21:
  3451  073A  2F1A               	goto	i1l1715
  3452  073B                     u224_20:
  3453  073B                     i1l1727:
  3454  073B  01B9               	clrf	___fldiv@aexp
  3455  073C                     i1l1729:
  3456  073C  1FB7               	btfss	___fldiv@grs+3,7
  3457  073D  2F3F               	goto	u225_21
  3458  073E  2F40               	goto	u225_20
  3459  073F                     u225_21:
  3460  073F  2F5C               	goto	i1l1737
  3461  0740                     u225_20:
  3462  0740                     i1l1731:
  3463  0740  30FF               	movlw	255
  3464  0741  0534               	andwf	___fldiv@grs,w
  3465  0742  00A8               	movwf	??___fldiv
  3466  0743  30FF               	movlw	255
  3467  0744  0535               	andwf	___fldiv@grs+1,w
  3468  0745  00A9               	movwf	??___fldiv+1
  3469  0746  30FF               	movlw	255
  3470  0747  0536               	andwf	___fldiv@grs+2,w
  3471  0748  00AA               	movwf	??___fldiv+2
  3472  0749  307F               	movlw	127
  3473  074A  0537               	andwf	___fldiv@grs+3,w
  3474  074B  00AB               	movwf	??___fldiv+3
  3475  074C  082B               	movf	??___fldiv+3,w
  3476  074D  042A               	iorwf	??___fldiv+2,w
  3477  074E  0429               	iorwf	??___fldiv+1,w
  3478  074F  0428               	iorwf	??___fldiv,w
  3479  0750  1903               	skipnz
  3480  0751  2F53               	goto	u226_21
  3481  0752  2F54               	goto	u226_20
  3482  0753                     u226_21:
  3483  0753  2F57               	goto	i1l540
  3484  0754                     u226_20:
  3485  0754                     i1l1733:
  3486  0754  01B9               	clrf	___fldiv@aexp
  3487  0755  0AB9               	incf	___fldiv@aexp,f
  3488  0756  2F5C               	goto	i1l1737
  3489  0757                     i1l540:
  3490  0757  1C24               	btfss	___fldiv@b,0
  3491  0758  2F5A               	goto	u227_21
  3492  0759  2F5B               	goto	u227_20
  3493  075A                     u227_21:
  3494  075A  2F5C               	goto	i1l1737
  3495  075B                     u227_20:
  3496  075B  2F54               	goto	i1l1733
  3497  075C                     i1l1737:
  3498  075C  0839               	movf	___fldiv@aexp,w
  3499  075D  1903               	btfsc	3,2
  3500  075E  2F60               	goto	u228_21
  3501  075F  2F61               	goto	u228_20
  3502  0760                     u228_21:
  3503  0760  2F92               	goto	i1l1747
  3504  0761                     u228_20:
  3505  0761                     i1l1739:
  3506  0761  3001               	movlw	1
  3507  0762  07A4               	addwf	___fldiv@b,f
  3508  0763  3000               	movlw	0
  3509  0764  1803               	skipnc
  3510  0765  3001               	movlw	1
  3511  0766  07A5               	addwf	___fldiv@b+1,f
  3512  0767  3000               	movlw	0
  3513  0768  1803               	skipnc
  3514  0769  3001               	movlw	1
  3515  076A  07A6               	addwf	___fldiv@b+2,f
  3516  076B  3000               	movlw	0
  3517  076C  1803               	skipnc
  3518  076D  3001               	movlw	1
  3519  076E  07A7               	addwf	___fldiv@b+3,f
  3520  076F                     i1l1741:
  3521  076F  1C27               	btfss	___fldiv@b+3,0
  3522  0770  2F72               	goto	u229_21
  3523  0771  2F73               	goto	u229_20
  3524  0772                     u229_21:
  3525  0772  2F92               	goto	i1l1747
  3526  0773                     u229_20:
  3527  0773                     i1l1743:
  3528  0773  0824               	movf	___fldiv@b,w
  3529  0774  00A8               	movwf	??___fldiv
  3530  0775  0825               	movf	___fldiv@b+1,w
  3531  0776  00A9               	movwf	??___fldiv+1
  3532  0777  0826               	movf	___fldiv@b+2,w
  3533  0778  00AA               	movwf	??___fldiv+2
  3534  0779  0827               	movf	___fldiv@b+3,w
  3535  077A  00AB               	movwf	??___fldiv+3
  3536  077B  3001               	movlw	1
  3537  077C  00AC               	movwf	??___fldiv+4
  3538  077D                     u230_25:
  3539  077D  0D2B               	rlf	??___fldiv+3,w
  3540  077E  0CAB               	rrf	??___fldiv+3,f
  3541  077F  0CAA               	rrf	??___fldiv+2,f
  3542  0780  0CA9               	rrf	??___fldiv+1,f
  3543  0781  0CA8               	rrf	??___fldiv,f
  3544  0782                     u230_20:
  3545  0782  0BAC               	decfsz	??___fldiv+4,f
  3546  0783  2F7D               	goto	u230_25
  3547  0784  082B               	movf	??___fldiv+3,w
  3548  0785  00A7               	movwf	___fldiv@b+3
  3549  0786  082A               	movf	??___fldiv+2,w
  3550  0787  00A6               	movwf	___fldiv@b+2
  3551  0788  0829               	movf	??___fldiv+1,w
  3552  0789  00A5               	movwf	___fldiv@b+1
  3553  078A  0828               	movf	??___fldiv,w
  3554  078B  00A4               	movwf	___fldiv@b
  3555  078C                     i1l1745:
  3556  078C  3001               	movlw	1
  3557  078D  07B2               	addwf	___fldiv@new_exp,f
  3558  078E  1803               	skipnc
  3559  078F  0AB3               	incf	___fldiv@new_exp+1,f
  3560  0790  3000               	movlw	0
  3561  0791  07B3               	addwf	___fldiv@new_exp+1,f
  3562  0792                     i1l1747:
  3563  0792  0833               	movf	___fldiv@new_exp+1,w
  3564  0793  3A80               	xorlw	128
  3565  0794  00FF               	movwf	btemp+1
  3566  0795  3080               	movlw	128
  3567  0796  027F               	subwf	btemp+1,w
  3568  0797  1D03               	skipz
  3569  0798  2F9B               	goto	u231_25
  3570  0799  30FF               	movlw	255
  3571  079A  0232               	subwf	___fldiv@new_exp,w
  3572  079B                     u231_25:
  3573  079B  1C03               	skipc
  3574  079C  2F9E               	goto	u231_21
  3575  079D  2F9F               	goto	u231_20
  3576  079E                     u231_21:
  3577  079E  2FAD               	goto	i1l1751
  3578  079F                     u231_20:
  3579  079F                     i1l1749:
  3580  079F  30FF               	movlw	255
  3581  07A0  1283               	bcf	3,5	;RP0=0, select bank0
  3582  07A1  1303               	bcf	3,6	;RP1=0, select bank0
  3583  07A2  00B2               	movwf	___fldiv@new_exp
  3584  07A3  3000               	movlw	0
  3585  07A4  00B3               	movwf	___fldiv@new_exp+1
  3586  07A5  3000               	movlw	0
  3587  07A6  00A7               	movwf	___fldiv@b+3
  3588  07A7  3000               	movlw	0
  3589  07A8  00A6               	movwf	___fldiv@b+2
  3590  07A9  3000               	movlw	0
  3591  07AA  00A5               	movwf	___fldiv@b+1
  3592  07AB  3000               	movlw	0
  3593  07AC  00A4               	movwf	___fldiv@b
  3594  07AD                     i1l1751:
  3595  07AD  1283               	bcf	3,5	;RP0=0, select bank0
  3596  07AE  1303               	bcf	3,6	;RP1=0, select bank0
  3597  07AF  0833               	movf	___fldiv@new_exp+1,w
  3598  07B0  3A80               	xorlw	128
  3599  07B1  00FF               	movwf	btemp+1
  3600  07B2  3080               	movlw	128
  3601  07B3  027F               	subwf	btemp+1,w
  3602  07B4  1D03               	skipz
  3603  07B5  2FB8               	goto	u232_25
  3604  07B6  3001               	movlw	1
  3605  07B7  0232               	subwf	___fldiv@new_exp,w
  3606  07B8                     u232_25:
  3607  07B8  1803               	skipnc
  3608  07B9  2FBB               	goto	u232_21
  3609  07BA  2FBC               	goto	u232_20
  3610  07BB                     u232_21:
  3611  07BB  2FC9               	goto	i1l546
  3612  07BC                     u232_20:
  3613  07BC                     i1l1753:
  3614  07BC  1283               	bcf	3,5	;RP0=0, select bank0
  3615  07BD  1303               	bcf	3,6	;RP1=0, select bank0
  3616  07BE  01B2               	clrf	___fldiv@new_exp
  3617  07BF  01B3               	clrf	___fldiv@new_exp+1
  3618  07C0                     i1l1755:
  3619  07C0  3000               	movlw	0
  3620  07C1  00A7               	movwf	___fldiv@b+3
  3621  07C2  3000               	movlw	0
  3622  07C3  00A6               	movwf	___fldiv@b+2
  3623  07C4  3000               	movlw	0
  3624  07C5  00A5               	movwf	___fldiv@b+1
  3625  07C6  3000               	movlw	0
  3626  07C7  00A4               	movwf	___fldiv@b
  3627  07C8                     i1l1757:
  3628  07C8  01B1               	clrf	___fldiv@sign
  3629  07C9                     i1l546:
  3630  07C9  1283               	bcf	3,5	;RP0=0, select bank0
  3631  07CA  1303               	bcf	3,6	;RP1=0, select bank0
  3632  07CB  0832               	movf	___fldiv@new_exp,w
  3633  07CC  00A8               	movwf	??___fldiv
  3634  07CD  0828               	movf	??___fldiv,w
  3635  07CE  00B8               	movwf	___fldiv@bexp
  3636  07CF                     i1l1759:
  3637  07CF  1C38               	btfss	___fldiv@bexp,0
  3638  07D0  2FD2               	goto	u233_21
  3639  07D1  2FD3               	goto	u233_20
  3640  07D2                     u233_21:
  3641  07D2  2FD5               	goto	i1l1763
  3642  07D3                     u233_20:
  3643  07D3                     i1l1761:
  3644  07D3  17A6               	bsf	___fldiv@b+2,7
  3645  07D4  2FD9               	goto	i1l548
  3646  07D5                     i1l1763:
  3647  07D5  307F               	movlw	127
  3648  07D6  00A8               	movwf	??___fldiv
  3649  07D7  0828               	movf	??___fldiv,w
  3650  07D8  05A6               	andwf	___fldiv@b+2,f
  3651  07D9                     i1l548:
  3652  07D9  0838               	movf	___fldiv@bexp,w
  3653  07DA  00A8               	movwf	??___fldiv
  3654  07DB  1003               	clrc
  3655  07DC  0C28               	rrf	??___fldiv,w
  3656  07DD  00A9               	movwf	??___fldiv+1
  3657  07DE  0829               	movf	??___fldiv+1,w
  3658  07DF  00A7               	movwf	___fldiv@b+3
  3659  07E0  0831               	movf	___fldiv@sign,w
  3660  07E1  00A8               	movwf	??___fldiv
  3661  07E2  0828               	movf	??___fldiv,w
  3662  07E3  04A7               	iorwf	___fldiv@b+3,f
  3663  07E4  2E7D               	goto	i1l1671
  3664  07E5                     i1l526:
  3665  07E5  0008               	return
  3666  07E6                     __end_of___fldiv:
  3667                           
  3668                           	psect	text9
  3669  0381                     __ptext9:	
  3670 ;; *************** function ___fladd *****************
  3671 ;; Defined at:
  3672 ;;		line 10 in file "C:\Program Files\Microchip\xc8\v2.35\pic\sources\c90\common\sprcadd.c"
  3673 ;; Parameters:    Size  Location     Type
  3674 ;;  b               4   52[BANK0 ] unsigned char 
  3675 ;;  a               4   56[BANK0 ] unsigned char 
  3676 ;; Auto vars:     Size  Location     Type
  3677 ;;  grs             1   71[BANK0 ] unsigned char 
  3678 ;;  bexp            1   70[BANK0 ] unsigned char 
  3679 ;;  aexp            1   69[BANK0 ] unsigned char 
  3680 ;;  signs           1   68[BANK0 ] unsigned char 
  3681 ;; Return value:  Size  Location     Type
  3682 ;;                  4   52[BANK0 ] unsigned char 
  3683 ;; Registers used:
  3684 ;;		wreg, status,2, status,0, btemp+1
  3685 ;; Tracked objects:
  3686 ;;		On entry : 0/0
  3687 ;;		On exit  : 0/0
  3688 ;;		Unchanged: 0/0
  3689 ;; Data sizes:     COMMON   BANK0   BANK1   BANK3   BANK2
  3690 ;;      Params:         0       8       0       0       0
  3691 ;;      Locals:         0       4       0       0       0
  3692 ;;      Temps:          0       8       0       0       0
  3693 ;;      Totals:         0      20       0       0       0
  3694 ;;Total ram usage:       20 bytes
  3695 ;; Hardware stack levels used: 1
  3696 ;; This function calls:
  3697 ;;		Nothing
  3698 ;; This function is called by:
  3699 ;;		_map
  3700 ;; This function uses a non-reentrant model
  3701 ;;
  3702                           
  3703  0381                     ___fladd:	
  3704                           ;psect for function ___fladd
  3705                           
  3706  0381                     i1l1433:	
  3707                           ;incstack = 0
  3708                           ; Regs used in ___fladd: [wreg+status,2+status,0+btemp+1]
  3709                           
  3710  0381  1283               	bcf	3,5	;RP0=0, select bank0
  3711  0382  1303               	bcf	3,6	;RP1=0, select bank0
  3712  0383  0857               	movf	___fladd@b+3,w
  3713  0384  3980               	andlw	128
  3714  0385  00DC               	movwf	??___fladd
  3715  0386  085C               	movf	??___fladd,w
  3716  0387  00E4               	movwf	___fladd@signs
  3717  0388                     i1l1435:
  3718  0388  0857               	movf	___fladd@b+3,w
  3719  0389  00DC               	movwf	??___fladd
  3720  038A  075C               	addwf	??___fladd,w
  3721  038B  00DD               	movwf	??___fladd+1
  3722  038C  085D               	movf	??___fladd+1,w
  3723  038D  00E6               	movwf	___fladd@bexp
  3724  038E                     i1l1437:
  3725  038E  1FD6               	btfss	___fladd@b+2,7
  3726  038F  2B91               	goto	u159_21
  3727  0390  2B92               	goto	u159_20
  3728  0391                     u159_21:
  3729  0391  2B93               	goto	i1l1441
  3730  0392                     u159_20:
  3731  0392                     i1l1439:
  3732  0392  1466               	bsf	___fladd@bexp,0
  3733  0393                     i1l1441:
  3734  0393  0866               	movf	___fladd@bexp,w
  3735  0394  1903               	btfsc	3,2
  3736  0395  2B97               	goto	u160_21
  3737  0396  2B98               	goto	u160_20
  3738  0397                     u160_21:
  3739  0397  2BA8               	goto	i1l1451
  3740  0398                     u160_20:
  3741  0398                     i1l1443:
  3742  0398  0A66               	incf	___fladd@bexp,w
  3743  0399  1D03               	btfss	3,2
  3744  039A  2B9C               	goto	u161_21
  3745  039B  2B9D               	goto	u161_20
  3746  039C                     u161_21:
  3747  039C  2BA5               	goto	i1l1447
  3748  039D                     u161_20:
  3749  039D                     i1l1445:
  3750  039D  3000               	movlw	0
  3751  039E  00D7               	movwf	___fladd@b+3
  3752  039F  3000               	movlw	0
  3753  03A0  00D6               	movwf	___fladd@b+2
  3754  03A1  3000               	movlw	0
  3755  03A2  00D5               	movwf	___fladd@b+1
  3756  03A3  3000               	movlw	0
  3757  03A4  00D4               	movwf	___fladd@b
  3758  03A5                     i1l1447:
  3759  03A5  17D6               	bsf	___fladd@b+2,7
  3760  03A6                     i1l1449:
  3761  03A6  01D7               	clrf	___fladd@b+3
  3762  03A7  2BB0               	goto	i1l1453
  3763  03A8                     i1l1451:
  3764  03A8  3000               	movlw	0
  3765  03A9  00D7               	movwf	___fladd@b+3
  3766  03AA  3000               	movlw	0
  3767  03AB  00D6               	movwf	___fladd@b+2
  3768  03AC  3000               	movlw	0
  3769  03AD  00D5               	movwf	___fladd@b+1
  3770  03AE  3000               	movlw	0
  3771  03AF  00D4               	movwf	___fladd@b
  3772  03B0                     i1l1453:
  3773  03B0  085B               	movf	___fladd@a+3,w
  3774  03B1  3980               	andlw	128
  3775  03B2  00DC               	movwf	??___fladd
  3776  03B3  085C               	movf	??___fladd,w
  3777  03B4  00E5               	movwf	___fladd@aexp
  3778  03B5                     i1l1455:
  3779  03B5  0865               	movf	___fladd@aexp,w
  3780  03B6  0664               	xorwf	___fladd@signs,w
  3781  03B7  1903               	skipnz
  3782  03B8  2BBA               	goto	u162_21
  3783  03B9  2BBB               	goto	u162_20
  3784  03BA                     u162_21:
  3785  03BA  2BBC               	goto	i1l1459
  3786  03BB                     u162_20:
  3787  03BB                     i1l1457:
  3788  03BB  1764               	bsf	___fladd@signs,6
  3789  03BC                     i1l1459:
  3790  03BC  085B               	movf	___fladd@a+3,w
  3791  03BD  00DC               	movwf	??___fladd
  3792  03BE  075C               	addwf	??___fladd,w
  3793  03BF  00DD               	movwf	??___fladd+1
  3794  03C0  085D               	movf	??___fladd+1,w
  3795  03C1  00E5               	movwf	___fladd@aexp
  3796  03C2                     i1l1461:
  3797  03C2  1FDA               	btfss	___fladd@a+2,7
  3798  03C3  2BC5               	goto	u163_21
  3799  03C4  2BC6               	goto	u163_20
  3800  03C5                     u163_21:
  3801  03C5  2BC7               	goto	i1l1465
  3802  03C6                     u163_20:
  3803  03C6                     i1l1463:
  3804  03C6  1465               	bsf	___fladd@aexp,0
  3805  03C7                     i1l1465:
  3806  03C7  0865               	movf	___fladd@aexp,w
  3807  03C8  1903               	btfsc	3,2
  3808  03C9  2BCB               	goto	u164_21
  3809  03CA  2BCC               	goto	u164_20
  3810  03CB                     u164_21:
  3811  03CB  2BDC               	goto	i1l1475
  3812  03CC                     u164_20:
  3813  03CC                     i1l1467:
  3814  03CC  0A65               	incf	___fladd@aexp,w
  3815  03CD  1D03               	btfss	3,2
  3816  03CE  2BD0               	goto	u165_21
  3817  03CF  2BD1               	goto	u165_20
  3818  03D0                     u165_21:
  3819  03D0  2BD9               	goto	i1l1471
  3820  03D1                     u165_20:
  3821  03D1                     i1l1469:
  3822  03D1  3000               	movlw	0
  3823  03D2  00DB               	movwf	___fladd@a+3
  3824  03D3  3000               	movlw	0
  3825  03D4  00DA               	movwf	___fladd@a+2
  3826  03D5  3000               	movlw	0
  3827  03D6  00D9               	movwf	___fladd@a+1
  3828  03D7  3000               	movlw	0
  3829  03D8  00D8               	movwf	___fladd@a
  3830  03D9                     i1l1471:
  3831  03D9  17DA               	bsf	___fladd@a+2,7
  3832  03DA                     i1l1473:
  3833  03DA  01DB               	clrf	___fladd@a+3
  3834  03DB  2BE4               	goto	i1l468
  3835  03DC                     i1l1475:
  3836  03DC  3000               	movlw	0
  3837  03DD  00DB               	movwf	___fladd@a+3
  3838  03DE  3000               	movlw	0
  3839  03DF  00DA               	movwf	___fladd@a+2
  3840  03E0  3000               	movlw	0
  3841  03E1  00D9               	movwf	___fladd@a+1
  3842  03E2  3000               	movlw	0
  3843  03E3  00D8               	movwf	___fladd@a
  3844  03E4                     i1l468:
  3845  03E4  0866               	movf	___fladd@bexp,w
  3846  03E5  0265               	subwf	___fladd@aexp,w
  3847  03E6  1803               	skipnc
  3848  03E7  2BE9               	goto	u166_21
  3849  03E8  2BEA               	goto	u166_20
  3850  03E9                     u166_21:
  3851  03E9  2C2E               	goto	i1l1511
  3852  03EA                     u166_20:
  3853  03EA                     i1l1477:
  3854  03EA  1F64               	btfss	___fladd@signs,6
  3855  03EB  2BED               	goto	u167_21
  3856  03EC  2BEE               	goto	u167_20
  3857  03ED                     u167_21:
  3858  03ED  2BF2               	goto	i1l1481
  3859  03EE                     u167_20:
  3860  03EE                     i1l1479:
  3861  03EE  3080               	movlw	128
  3862  03EF  00DC               	movwf	??___fladd
  3863  03F0  085C               	movf	??___fladd,w
  3864  03F1  06E4               	xorwf	___fladd@signs,f
  3865  03F2                     i1l1481:
  3866  03F2  0866               	movf	___fladd@bexp,w
  3867  03F3  00DC               	movwf	??___fladd
  3868  03F4  085C               	movf	??___fladd,w
  3869  03F5  00E7               	movwf	___fladd@grs
  3870  03F6                     i1l1483:
  3871  03F6  0865               	movf	___fladd@aexp,w
  3872  03F7  00DC               	movwf	??___fladd
  3873  03F8  085C               	movf	??___fladd,w
  3874  03F9  00E6               	movwf	___fladd@bexp
  3875  03FA                     i1l1485:
  3876  03FA  0867               	movf	___fladd@grs,w
  3877  03FB  00DC               	movwf	??___fladd
  3878  03FC  085C               	movf	??___fladd,w
  3879  03FD  00E5               	movwf	___fladd@aexp
  3880  03FE                     i1l1487:
  3881  03FE  0854               	movf	___fladd@b,w
  3882  03FF  00DC               	movwf	??___fladd
  3883  0400  085C               	movf	??___fladd,w
  3884  0401  00E7               	movwf	___fladd@grs
  3885  0402                     i1l1489:
  3886  0402  0858               	movf	___fladd@a,w
  3887  0403  00DC               	movwf	??___fladd
  3888  0404  085C               	movf	??___fladd,w
  3889  0405  00D4               	movwf	___fladd@b
  3890  0406                     i1l1491:
  3891  0406  0867               	movf	___fladd@grs,w
  3892  0407  00DC               	movwf	??___fladd
  3893  0408  085C               	movf	??___fladd,w
  3894  0409  00D8               	movwf	___fladd@a
  3895  040A                     i1l1493:
  3896  040A  0855               	movf	___fladd@b+1,w
  3897  040B  00DC               	movwf	??___fladd
  3898  040C  085C               	movf	??___fladd,w
  3899  040D  00E7               	movwf	___fladd@grs
  3900  040E                     i1l1495:
  3901  040E  0859               	movf	___fladd@a+1,w
  3902  040F  00DC               	movwf	??___fladd
  3903  0410  085C               	movf	??___fladd,w
  3904  0411  00D5               	movwf	___fladd@b+1
  3905  0412                     i1l1497:
  3906  0412  0867               	movf	___fladd@grs,w
  3907  0413  00DC               	movwf	??___fladd
  3908  0414  085C               	movf	??___fladd,w
  3909  0415  00D9               	movwf	___fladd@a+1
  3910  0416                     i1l1499:
  3911  0416  0856               	movf	___fladd@b+2,w
  3912  0417  00DC               	movwf	??___fladd
  3913  0418  085C               	movf	??___fladd,w
  3914  0419  00E7               	movwf	___fladd@grs
  3915  041A                     i1l1501:
  3916  041A  085A               	movf	___fladd@a+2,w
  3917  041B  00DC               	movwf	??___fladd
  3918  041C  085C               	movf	??___fladd,w
  3919  041D  00D6               	movwf	___fladd@b+2
  3920  041E                     i1l1503:
  3921  041E  0867               	movf	___fladd@grs,w
  3922  041F  00DC               	movwf	??___fladd
  3923  0420  085C               	movf	??___fladd,w
  3924  0421  00DA               	movwf	___fladd@a+2
  3925  0422                     i1l1505:
  3926  0422  0857               	movf	___fladd@b+3,w
  3927  0423  00DC               	movwf	??___fladd
  3928  0424  085C               	movf	??___fladd,w
  3929  0425  00E7               	movwf	___fladd@grs
  3930  0426                     i1l1507:
  3931  0426  085B               	movf	___fladd@a+3,w
  3932  0427  00DC               	movwf	??___fladd
  3933  0428  085C               	movf	??___fladd,w
  3934  0429  00D7               	movwf	___fladd@b+3
  3935  042A                     i1l1509:
  3936  042A  0867               	movf	___fladd@grs,w
  3937  042B  00DC               	movwf	??___fladd
  3938  042C  085C               	movf	??___fladd,w
  3939  042D  00DB               	movwf	___fladd@a+3
  3940  042E                     i1l1511:
  3941  042E  01E7               	clrf	___fladd@grs
  3942  042F                     i1l1513:
  3943  042F  0865               	movf	___fladd@aexp,w
  3944  0430  00DC               	movwf	??___fladd
  3945  0431  01DD               	clrf	??___fladd+1
  3946  0432  085D               	movf	??___fladd+1,w
  3947  0433  00DF               	movwf	??___fladd+3
  3948  0434  0866               	movf	___fladd@bexp,w
  3949  0435  025C               	subwf	??___fladd,w
  3950  0436  00DE               	movwf	??___fladd+2
  3951  0437  1C03               	skipc
  3952  0438  03DF               	decf	??___fladd+3,f
  3953  0439  085F               	movf	??___fladd+3,w
  3954  043A  3A80               	xorlw	128
  3955  043B  00FF               	movwf	btemp+1
  3956  043C  3080               	movlw	128
  3957  043D  027F               	subwf	btemp+1,w
  3958  043E  1D03               	skipz
  3959  043F  2C42               	goto	u168_25
  3960  0440  301A               	movlw	26
  3961  0441  025E               	subwf	??___fladd+2,w
  3962  0442                     u168_25:
  3963  0442  1C03               	skipc
  3964  0443  2C45               	goto	u168_21
  3965  0444  2C46               	goto	u168_20
  3966  0445                     u168_21:
  3967  0445  2C83               	goto	i1l1529
  3968  0446                     u168_20:
  3969  0446                     i1l1515:
  3970  0446  1283               	bcf	3,5	;RP0=0, select bank0
  3971  0447  1303               	bcf	3,6	;RP1=0, select bank0
  3972  0448  0857               	movf	___fladd@b+3,w
  3973  0449  0456               	iorwf	___fladd@b+2,w
  3974  044A  0455               	iorwf	___fladd@b+1,w
  3975  044B  0454               	iorwf	___fladd@b,w
  3976  044C  1D03               	skipz
  3977  044D  2C4F               	goto	u169_21
  3978  044E  2C51               	goto	u169_20
  3979  044F                     u169_21:
  3980  044F  3001               	movlw	1
  3981  0450  2C52               	goto	u170_20
  3982  0451                     u169_20:
  3983  0451  3000               	movlw	0
  3984  0452                     u170_20:
  3985  0452  00DC               	movwf	??___fladd
  3986  0453  085C               	movf	??___fladd,w
  3987  0454  00E7               	movwf	___fladd@grs
  3988  0455  3000               	movlw	0
  3989  0456  00D7               	movwf	___fladd@b+3
  3990  0457  3000               	movlw	0
  3991  0458  00D6               	movwf	___fladd@b+2
  3992  0459  3000               	movlw	0
  3993  045A  00D5               	movwf	___fladd@b+1
  3994  045B  3000               	movlw	0
  3995  045C  00D4               	movwf	___fladd@b
  3996  045D  0865               	movf	___fladd@aexp,w
  3997  045E  00DC               	movwf	??___fladd
  3998  045F  085C               	movf	??___fladd,w
  3999  0460  00E6               	movwf	___fladd@bexp
  4000  0461  2C8B               	goto	i1l472
  4001  0462                     i1l474:
  4002  0462  1C67               	btfss	___fladd@grs,0
  4003  0463  2C65               	goto	u171_21
  4004  0464  2C66               	goto	u171_20
  4005  0465                     u171_21:
  4006  0465  2C6F               	goto	i1l1519
  4007  0466                     u171_20:
  4008  0466                     i1l1517:
  4009  0466  0867               	movf	___fladd@grs,w
  4010  0467  00DC               	movwf	??___fladd
  4011  0468  1003               	clrc
  4012  0469  0C5C               	rrf	??___fladd,w
  4013  046A  3801               	iorlw	1
  4014  046B  00DD               	movwf	??___fladd+1
  4015  046C  085D               	movf	??___fladd+1,w
  4016  046D  00E7               	movwf	___fladd@grs
  4017  046E  2C71               	goto	i1l1521
  4018  046F                     i1l1519:
  4019  046F  1003               	clrc
  4020  0470  0CE7               	rrf	___fladd@grs,f
  4021  0471                     i1l1521:
  4022  0471  1C54               	btfss	___fladd@b,0
  4023  0472  2C74               	goto	u172_21
  4024  0473  2C75               	goto	u172_20
  4025  0474                     u172_21:
  4026  0474  2C76               	goto	i1l1525
  4027  0475                     u172_20:
  4028  0475                     i1l1523:
  4029  0475  17E7               	bsf	___fladd@grs,7
  4030  0476                     i1l1525:
  4031  0476  3001               	movlw	1
  4032  0477  00DC               	movwf	??___fladd
  4033  0478                     u173_25:
  4034  0478  0D57               	rlf	___fladd@b+3,w
  4035  0479  0CD7               	rrf	___fladd@b+3,f
  4036  047A  0CD6               	rrf	___fladd@b+2,f
  4037  047B  0CD5               	rrf	___fladd@b+1,f
  4038  047C  0CD4               	rrf	___fladd@b,f
  4039  047D  0BDC               	decfsz	??___fladd& (0+127),f
  4040  047E  2C78               	goto	u173_25
  4041  047F                     i1l1527:
  4042  047F  3001               	movlw	1
  4043  0480  00DC               	movwf	??___fladd
  4044  0481  085C               	movf	??___fladd,w
  4045  0482  07E6               	addwf	___fladd@bexp,f
  4046  0483                     i1l1529:
  4047  0483  1283               	bcf	3,5	;RP0=0, select bank0
  4048  0484  1303               	bcf	3,6	;RP1=0, select bank0
  4049  0485  0865               	movf	___fladd@aexp,w
  4050  0486  0266               	subwf	___fladd@bexp,w
  4051  0487  1C03               	skipc
  4052  0488  2C8A               	goto	u174_21
  4053  0489  2C8B               	goto	u174_20
  4054  048A                     u174_21:
  4055  048A  2C62               	goto	i1l474
  4056  048B                     u174_20:
  4057  048B                     i1l472:
  4058  048B  1B64               	btfsc	___fladd@signs,6
  4059  048C  2C8E               	goto	u175_21
  4060  048D  2C8F               	goto	u175_20
  4061  048E                     u175_21:
  4062  048E  2CDA               	goto	i1l1555
  4063  048F                     u175_20:
  4064  048F                     i1l1531:
  4065  048F  0866               	movf	___fladd@bexp,w
  4066  0490  1D03               	btfss	3,2
  4067  0491  2C93               	goto	u176_21
  4068  0492  2C94               	goto	u176_20
  4069  0493                     u176_21:
  4070  0493  2C9D               	goto	i1l1537
  4071  0494                     u176_20:
  4072  0494                     i1l1533:
  4073  0494  3000               	movlw	0
  4074  0495  00D7               	movwf	?___fladd+3
  4075  0496  3000               	movlw	0
  4076  0497  00D6               	movwf	?___fladd+2
  4077  0498  3000               	movlw	0
  4078  0499  00D5               	movwf	?___fladd+1
  4079  049A  3000               	movlw	0
  4080  049B  00D4               	movwf	?___fladd
  4081  049C  2E08               	goto	i1l481
  4082  049D                     i1l1537:
  4083  049D  0858               	movf	___fladd@a,w
  4084  049E  07D4               	addwf	___fladd@b,f
  4085  049F  0859               	movf	___fladd@a+1,w
  4086  04A0  1103               	clrz
  4087  04A1  1803               	skipnc
  4088  04A2  3E01               	addlw	1
  4089  04A3  1903               	skipnz
  4090  04A4  2CA6               	goto	u177_21
  4091  04A5  07D5               	addwf	___fladd@b+1,f
  4092  04A6                     u177_21:
  4093  04A6  085A               	movf	___fladd@a+2,w
  4094  04A7  1103               	clrz
  4095  04A8  1803               	skipnc
  4096  04A9  3E01               	addlw	1
  4097  04AA  1903               	skipnz
  4098  04AB  2CAD               	goto	u177_22
  4099  04AC  07D6               	addwf	___fladd@b+2,f
  4100  04AD                     u177_22:
  4101  04AD  085B               	movf	___fladd@a+3,w
  4102  04AE  1103               	clrz
  4103  04AF  1803               	skipnc
  4104  04B0  3E01               	addlw	1
  4105  04B1  1903               	skipnz
  4106  04B2  2CB4               	goto	u177_23
  4107  04B3  07D7               	addwf	___fladd@b+3,f
  4108  04B4                     u177_23:
  4109  04B4                     i1l1539:
  4110  04B4  1C57               	btfss	___fladd@b+3,0
  4111  04B5  2CB7               	goto	u178_21
  4112  04B6  2CB8               	goto	u178_20
  4113  04B7                     u178_21:
  4114  04B7  2D8E               	goto	i1l1589
  4115  04B8                     u178_20:
  4116  04B8                     i1l1541:
  4117  04B8  1C67               	btfss	___fladd@grs,0
  4118  04B9  2CBB               	goto	u179_21
  4119  04BA  2CBC               	goto	u179_20
  4120  04BB                     u179_21:
  4121  04BB  2CC5               	goto	i1l1545
  4122  04BC                     u179_20:
  4123  04BC                     i1l1543:
  4124  04BC  0867               	movf	___fladd@grs,w
  4125  04BD  00DC               	movwf	??___fladd
  4126  04BE  1003               	clrc
  4127  04BF  0C5C               	rrf	??___fladd,w
  4128  04C0  3801               	iorlw	1
  4129  04C1  00DD               	movwf	??___fladd+1
  4130  04C2  085D               	movf	??___fladd+1,w
  4131  04C3  00E7               	movwf	___fladd@grs
  4132  04C4  2CC7               	goto	i1l1547
  4133  04C5                     i1l1545:
  4134  04C5  1003               	clrc
  4135  04C6  0CE7               	rrf	___fladd@grs,f
  4136  04C7                     i1l1547:
  4137  04C7  1C54               	btfss	___fladd@b,0
  4138  04C8  2CCA               	goto	u180_21
  4139  04C9  2CCB               	goto	u180_20
  4140  04CA                     u180_21:
  4141  04CA  2CCC               	goto	i1l1551
  4142  04CB                     u180_20:
  4143  04CB                     i1l1549:
  4144  04CB  17E7               	bsf	___fladd@grs,7
  4145  04CC                     i1l1551:
  4146  04CC  3001               	movlw	1
  4147  04CD  00DC               	movwf	??___fladd
  4148  04CE                     u181_25:
  4149  04CE  0D57               	rlf	___fladd@b+3,w
  4150  04CF  0CD7               	rrf	___fladd@b+3,f
  4151  04D0  0CD6               	rrf	___fladd@b+2,f
  4152  04D1  0CD5               	rrf	___fladd@b+1,f
  4153  04D2  0CD4               	rrf	___fladd@b,f
  4154  04D3  0BDC               	decfsz	??___fladd& (0+127),f
  4155  04D4  2CCE               	goto	u181_25
  4156  04D5                     i1l1553:
  4157  04D5  3001               	movlw	1
  4158  04D6  00DC               	movwf	??___fladd
  4159  04D7  085C               	movf	??___fladd,w
  4160  04D8  07E6               	addwf	___fladd@bexp,f
  4161  04D9  2D8E               	goto	i1l1589
  4162  04DA                     i1l1555:
  4163  04DA  0857               	movf	___fladd@b+3,w
  4164  04DB  3A80               	xorlw	128
  4165  04DC  00FF               	movwf	btemp+1
  4166  04DD  085B               	movf	___fladd@a+3,w
  4167  04DE  3A80               	xorlw	128
  4168  04DF  027F               	subwf	btemp+1,w
  4169  04E0  1D03               	skipz
  4170  04E1  2CEC               	goto	u182_23
  4171  04E2  085A               	movf	___fladd@a+2,w
  4172  04E3  0256               	subwf	___fladd@b+2,w
  4173  04E4  1D03               	skipz
  4174  04E5  2CEC               	goto	u182_23
  4175  04E6  0859               	movf	___fladd@a+1,w
  4176  04E7  0255               	subwf	___fladd@b+1,w
  4177  04E8  1D03               	skipz
  4178  04E9  2CEC               	goto	u182_23
  4179  04EA  0858               	movf	___fladd@a,w
  4180  04EB  0254               	subwf	___fladd@b,w
  4181  04EC                     u182_23:
  4182  04EC  1803               	skipnc
  4183  04ED  2CEF               	goto	u182_21
  4184  04EE  2CF0               	goto	u182_20
  4185  04EF                     u182_21:
  4186  04EF  2D48               	goto	i1l1565
  4187  04F0                     u182_20:
  4188  04F0                     i1l1557:
  4189  04F0  30FF               	movlw	255
  4190  04F1  00DC               	movwf	??___fladd
  4191  04F2  30FF               	movlw	255
  4192  04F3  00DD               	movwf	??___fladd+1
  4193  04F4  30FF               	movlw	255
  4194  04F5  00DE               	movwf	??___fladd+2
  4195  04F6  30FF               	movlw	255
  4196  04F7  00DF               	movwf	??___fladd+3
  4197  04F8  0858               	movf	___fladd@a,w
  4198  04F9  00E0               	movwf	??___fladd+4
  4199  04FA  0859               	movf	___fladd@a+1,w
  4200  04FB  00E1               	movwf	??___fladd+5
  4201  04FC  085A               	movf	___fladd@a+2,w
  4202  04FD  00E2               	movwf	??___fladd+6
  4203  04FE  085B               	movf	___fladd@a+3,w
  4204  04FF  00E3               	movwf	??___fladd+7
  4205  0500  0854               	movf	___fladd@b,w
  4206  0501  02E0               	subwf	??___fladd+4,f
  4207  0502  0855               	movf	___fladd@b+1,w
  4208  0503  1C03               	skipc
  4209  0504  0F55               	incfsz	___fladd@b+1,w
  4210  0505  2D07               	goto	u183_21
  4211  0506  2D08               	goto	u183_22
  4212  0507                     u183_21:
  4213  0507  02E1               	subwf	??___fladd+5,f
  4214  0508                     u183_22:
  4215  0508  0856               	movf	___fladd@b+2,w
  4216  0509  1C03               	skipc
  4217  050A  0F56               	incfsz	___fladd@b+2,w
  4218  050B  2D0D               	goto	u183_23
  4219  050C  2D0E               	goto	u183_24
  4220  050D                     u183_23:
  4221  050D  02E2               	subwf	??___fladd+6,f
  4222  050E                     u183_24:
  4223  050E  0857               	movf	___fladd@b+3,w
  4224  050F  1C03               	skipc
  4225  0510  0F57               	incfsz	___fladd@b+3,w
  4226  0511  2D13               	goto	u183_25
  4227  0512  2D14               	goto	u183_26
  4228  0513                     u183_25:
  4229  0513  02E3               	subwf	??___fladd+7,f
  4230  0514                     u183_26:
  4231  0514  0860               	movf	??___fladd+4,w
  4232  0515  07DC               	addwf	??___fladd,f
  4233  0516  0861               	movf	??___fladd+5,w
  4234  0517  1803               	skipnc
  4235  0518  0F61               	incfsz	??___fladd+5,w
  4236  0519  2D1B               	goto	u184_20
  4237  051A  2D1C               	goto	u184_21
  4238  051B                     u184_20:
  4239  051B  07DD               	addwf	??___fladd+1,f
  4240  051C                     u184_21:
  4241  051C  0862               	movf	??___fladd+6,w
  4242  051D  1803               	skipnc
  4243  051E  0F62               	incfsz	??___fladd+6,w
  4244  051F  2D21               	goto	u184_22
  4245  0520  2D22               	goto	u184_23
  4246  0521                     u184_22:
  4247  0521  07DE               	addwf	??___fladd+2,f
  4248  0522                     u184_23:
  4249  0522  0863               	movf	??___fladd+7,w
  4250  0523  1803               	skipnc
  4251  0524  0A63               	incf	??___fladd+7,w
  4252  0525  07DF               	addwf	??___fladd+3,f
  4253  0526  085F               	movf	??___fladd+3,w
  4254  0527  00D7               	movwf	___fladd@b+3
  4255  0528  085E               	movf	??___fladd+2,w
  4256  0529  00D6               	movwf	___fladd@b+2
  4257  052A  085D               	movf	??___fladd+1,w
  4258  052B  00D5               	movwf	___fladd@b+1
  4259  052C  085C               	movf	??___fladd,w
  4260  052D  00D4               	movwf	___fladd@b
  4261  052E                     i1l1559:
  4262  052E  3080               	movlw	128
  4263  052F  00DC               	movwf	??___fladd
  4264  0530  085C               	movf	??___fladd,w
  4265  0531  06E4               	xorwf	___fladd@signs,f
  4266  0532  09E7               	comf	___fladd@grs,f
  4267  0533  0AE7               	incf	___fladd@grs,f
  4268  0534                     i1l1561:
  4269  0534  0867               	movf	___fladd@grs,w
  4270  0535  1D03               	btfss	3,2
  4271  0536  2D38               	goto	u185_21
  4272  0537  2D39               	goto	u185_20
  4273  0538                     u185_21:
  4274  0538  2D56               	goto	i1l489
  4275  0539                     u185_20:
  4276  0539                     i1l1563:
  4277  0539  3001               	movlw	1
  4278  053A  07D4               	addwf	___fladd@b,f
  4279  053B  3000               	movlw	0
  4280  053C  1803               	skipnc
  4281  053D  3001               	movlw	1
  4282  053E  07D5               	addwf	___fladd@b+1,f
  4283  053F  3000               	movlw	0
  4284  0540  1803               	skipnc
  4285  0541  3001               	movlw	1
  4286  0542  07D6               	addwf	___fladd@b+2,f
  4287  0543  3000               	movlw	0
  4288  0544  1803               	skipnc
  4289  0545  3001               	movlw	1
  4290  0546  07D7               	addwf	___fladd@b+3,f
  4291  0547  2D56               	goto	i1l489
  4292  0548                     i1l1565:
  4293  0548  0858               	movf	___fladd@a,w
  4294  0549  02D4               	subwf	___fladd@b,f
  4295  054A  0859               	movf	___fladd@a+1,w
  4296  054B  1C03               	skipc
  4297  054C  0F59               	incfsz	___fladd@a+1,w
  4298  054D  02D5               	subwf	___fladd@b+1,f
  4299  054E  085A               	movf	___fladd@a+2,w
  4300  054F  1C03               	skipc
  4301  0550  0F5A               	incfsz	___fladd@a+2,w
  4302  0551  02D6               	subwf	___fladd@b+2,f
  4303  0552  085B               	movf	___fladd@a+3,w
  4304  0553  1C03               	skipc
  4305  0554  0F5B               	incfsz	___fladd@a+3,w
  4306  0555  02D7               	subwf	___fladd@b+3,f
  4307  0556                     i1l489:
  4308  0556  0857               	movf	___fladd@b+3,w
  4309  0557  0456               	iorwf	___fladd@b+2,w
  4310  0558  0455               	iorwf	___fladd@b+1,w
  4311  0559  0454               	iorwf	___fladd@b,w
  4312  055A  1D03               	skipz
  4313  055B  2D5D               	goto	u186_21
  4314  055C  2D5E               	goto	u186_20
  4315  055D                     u186_21:
  4316  055D  2D8A               	goto	i1l1587
  4317  055E                     u186_20:
  4318  055E                     i1l1567:
  4319  055E  0867               	movf	___fladd@grs,w
  4320  055F  1D03               	btfss	3,2
  4321  0560  2D62               	goto	u187_21
  4322  0561  2D63               	goto	u187_20
  4323  0562                     u187_21:
  4324  0562  2D8A               	goto	i1l1587
  4325  0563                     u187_20:
  4326  0563                     i1l1569:
  4327  0563  3000               	movlw	0
  4328  0564  00D7               	movwf	?___fladd+3
  4329  0565  3000               	movlw	0
  4330  0566  00D6               	movwf	?___fladd+2
  4331  0567  3000               	movlw	0
  4332  0568  00D5               	movwf	?___fladd+1
  4333  0569  3000               	movlw	0
  4334  056A  00D4               	movwf	?___fladd
  4335  056B  2E08               	goto	i1l481
  4336  056C                     i1l1573:
  4337  056C  3001               	movlw	1
  4338  056D  00DC               	movwf	??___fladd
  4339  056E                     u188_25:
  4340  056E  1003               	clrc
  4341  056F  0DD4               	rlf	___fladd@b,f
  4342  0570  0DD5               	rlf	___fladd@b+1,f
  4343  0571  0DD6               	rlf	___fladd@b+2,f
  4344  0572  0DD7               	rlf	___fladd@b+3,f
  4345  0573  0BDC               	decfsz	??___fladd,f
  4346  0574  2D6E               	goto	u188_25
  4347  0575                     i1l1575:
  4348  0575  1FE7               	btfss	___fladd@grs,7
  4349  0576  2D78               	goto	u189_21
  4350  0577  2D79               	goto	u189_20
  4351  0578                     u189_21:
  4352  0578  2D7A               	goto	i1l493
  4353  0579                     u189_20:
  4354  0579                     i1l1577:
  4355  0579  1454               	bsf	___fladd@b,0
  4356  057A                     i1l493:
  4357  057A  1C67               	btfss	___fladd@grs,0
  4358  057B  2D7D               	goto	u190_21
  4359  057C  2D7E               	goto	u190_20
  4360  057D                     u190_21:
  4361  057D  2D81               	goto	i1l1581
  4362  057E                     u190_20:
  4363  057E                     i1l1579:
  4364  057E  1403               	setc
  4365  057F  0DE7               	rlf	___fladd@grs,f
  4366  0580  2D83               	goto	i1l1583
  4367  0581                     i1l1581:
  4368  0581  1003               	clrc
  4369  0582  0DE7               	rlf	___fladd@grs,f
  4370  0583                     i1l1583:
  4371  0583  0866               	movf	___fladd@bexp,w
  4372  0584  1903               	btfsc	3,2
  4373  0585  2D87               	goto	u191_21
  4374  0586  2D88               	goto	u191_20
  4375  0587                     u191_21:
  4376  0587  2D8A               	goto	i1l1587
  4377  0588                     u191_20:
  4378  0588                     i1l1585:
  4379  0588  3001               	movlw	1
  4380  0589  02E6               	subwf	___fladd@bexp,f
  4381  058A                     i1l1587:
  4382  058A  1FD6               	btfss	___fladd@b+2,7
  4383  058B  2D8D               	goto	u192_21
  4384  058C  2D8E               	goto	u192_20
  4385  058D                     u192_21:
  4386  058D  2D6C               	goto	i1l1573
  4387  058E                     u192_20:
  4388  058E                     i1l1589:
  4389  058E  01E5               	clrf	___fladd@aexp
  4390  058F                     i1l1591:
  4391  058F  1FE7               	btfss	___fladd@grs,7
  4392  0590  2D92               	goto	u193_21
  4393  0591  2D93               	goto	u193_20
  4394  0592                     u193_21:
  4395  0592  2DA1               	goto	i1l1599
  4396  0593                     u193_20:
  4397  0593                     i1l1593:
  4398  0593  0867               	movf	___fladd@grs,w
  4399  0594  397F               	andlw	127
  4400  0595  1903               	btfsc	3,2
  4401  0596  2D98               	goto	u194_21
  4402  0597  2D99               	goto	u194_20
  4403  0598                     u194_21:
  4404  0598  2D9C               	goto	i1l499
  4405  0599                     u194_20:
  4406  0599                     i1l1595:
  4407  0599  01E5               	clrf	___fladd@aexp
  4408  059A  0AE5               	incf	___fladd@aexp,f
  4409  059B  2DA1               	goto	i1l1599
  4410  059C                     i1l499:
  4411  059C  1C54               	btfss	___fladd@b,0
  4412  059D  2D9F               	goto	u195_21
  4413  059E  2DA0               	goto	u195_20
  4414  059F                     u195_21:
  4415  059F  2DA1               	goto	i1l1599
  4416  05A0                     u195_20:
  4417  05A0  2D99               	goto	i1l1595
  4418  05A1                     i1l1599:
  4419  05A1  0865               	movf	___fladd@aexp,w
  4420  05A2  1903               	btfsc	3,2
  4421  05A3  2DA5               	goto	u196_21
  4422  05A4  2DA6               	goto	u196_20
  4423  05A5                     u196_21:
  4424  05A5  2DDA               	goto	i1l502
  4425  05A6                     u196_20:
  4426  05A6                     i1l1601:
  4427  05A6  3001               	movlw	1
  4428  05A7  07D4               	addwf	___fladd@b,f
  4429  05A8  3000               	movlw	0
  4430  05A9  1803               	skipnc
  4431  05AA  3001               	movlw	1
  4432  05AB  07D5               	addwf	___fladd@b+1,f
  4433  05AC  3000               	movlw	0
  4434  05AD  1803               	skipnc
  4435  05AE  3001               	movlw	1
  4436  05AF  07D6               	addwf	___fladd@b+2,f
  4437  05B0  3000               	movlw	0
  4438  05B1  1803               	skipnc
  4439  05B2  3001               	movlw	1
  4440  05B3  07D7               	addwf	___fladd@b+3,f
  4441  05B4                     i1l1603:
  4442  05B4  1C57               	btfss	___fladd@b+3,0
  4443  05B5  2DB7               	goto	u197_21
  4444  05B6  2DB8               	goto	u197_20
  4445  05B7                     u197_21:
  4446  05B7  2DDA               	goto	i1l502
  4447  05B8                     u197_20:
  4448  05B8                     i1l1605:
  4449  05B8  0854               	movf	___fladd@b,w
  4450  05B9  00DC               	movwf	??___fladd
  4451  05BA  0855               	movf	___fladd@b+1,w
  4452  05BB  00DD               	movwf	??___fladd+1
  4453  05BC  0856               	movf	___fladd@b+2,w
  4454  05BD  00DE               	movwf	??___fladd+2
  4455  05BE  0857               	movf	___fladd@b+3,w
  4456  05BF  00DF               	movwf	??___fladd+3
  4457  05C0  3001               	movlw	1
  4458  05C1  00E0               	movwf	??___fladd+4
  4459  05C2                     u198_25:
  4460  05C2  0D5F               	rlf	??___fladd+3,w
  4461  05C3  0CDF               	rrf	??___fladd+3,f
  4462  05C4  0CDE               	rrf	??___fladd+2,f
  4463  05C5  0CDD               	rrf	??___fladd+1,f
  4464  05C6  0CDC               	rrf	??___fladd,f
  4465  05C7                     u198_20:
  4466  05C7  0BE0               	decfsz	??___fladd+4,f
  4467  05C8  2DC2               	goto	u198_25
  4468  05C9  085F               	movf	??___fladd+3,w
  4469  05CA  00D7               	movwf	___fladd@b+3
  4470  05CB  085E               	movf	??___fladd+2,w
  4471  05CC  00D6               	movwf	___fladd@b+2
  4472  05CD  085D               	movf	??___fladd+1,w
  4473  05CE  00D5               	movwf	___fladd@b+1
  4474  05CF  085C               	movf	??___fladd,w
  4475  05D0  00D4               	movwf	___fladd@b
  4476  05D1  0A66               	incf	___fladd@bexp,w
  4477  05D2  1903               	btfsc	3,2
  4478  05D3  2DD5               	goto	u199_21
  4479  05D4  2DD6               	goto	u199_20
  4480  05D5                     u199_21:
  4481  05D5  2DDA               	goto	i1l502
  4482  05D6                     u199_20:
  4483  05D6                     i1l1607:
  4484  05D6  3001               	movlw	1
  4485  05D7  00DC               	movwf	??___fladd
  4486  05D8  085C               	movf	??___fladd,w
  4487  05D9  07E6               	addwf	___fladd@bexp,f
  4488  05DA                     i1l502:
  4489  05DA  0A66               	incf	___fladd@bexp,w
  4490  05DB  1903               	btfsc	3,2
  4491  05DC  2DDE               	goto	u200_21
  4492  05DD  2DDF               	goto	u200_20
  4493  05DE                     u200_21:
  4494  05DE  2DE4               	goto	i1l1611
  4495  05DF                     u200_20:
  4496  05DF                     i1l1609:
  4497  05DF  0866               	movf	___fladd@bexp,w
  4498  05E0  1D03               	btfss	3,2
  4499  05E1  2DE3               	goto	u201_21
  4500  05E2  2DE4               	goto	u201_20
  4501  05E3                     u201_21:
  4502  05E3  2DF2               	goto	i1l1617
  4503  05E4                     u201_20:
  4504  05E4                     i1l1611:
  4505  05E4  3000               	movlw	0
  4506  05E5  00D7               	movwf	___fladd@b+3
  4507  05E6  3000               	movlw	0
  4508  05E7  00D6               	movwf	___fladd@b+2
  4509  05E8  3000               	movlw	0
  4510  05E9  00D5               	movwf	___fladd@b+1
  4511  05EA  3000               	movlw	0
  4512  05EB  00D4               	movwf	___fladd@b
  4513  05EC                     i1l1613:
  4514  05EC  0866               	movf	___fladd@bexp,w
  4515  05ED  1D03               	btfss	3,2
  4516  05EE  2DF0               	goto	u202_21
  4517  05EF  2DF1               	goto	u202_20
  4518  05F0                     u202_21:
  4519  05F0  2DF2               	goto	i1l1617
  4520  05F1                     u202_20:
  4521  05F1                     i1l1615:
  4522  05F1  01E4               	clrf	___fladd@signs
  4523  05F2                     i1l1617:
  4524  05F2  1C66               	btfss	___fladd@bexp,0
  4525  05F3  2DF5               	goto	u203_21
  4526  05F4  2DF6               	goto	u203_20
  4527  05F5                     u203_21:
  4528  05F5  2DF8               	goto	i1l1621
  4529  05F6                     u203_20:
  4530  05F6                     i1l1619:
  4531  05F6  17D6               	bsf	___fladd@b+2,7
  4532  05F7  2DFC               	goto	i1l510
  4533  05F8                     i1l1621:
  4534  05F8  307F               	movlw	127
  4535  05F9  00DC               	movwf	??___fladd
  4536  05FA  085C               	movf	??___fladd,w
  4537  05FB  05D6               	andwf	___fladd@b+2,f
  4538  05FC                     i1l510:
  4539  05FC  0866               	movf	___fladd@bexp,w
  4540  05FD  00DC               	movwf	??___fladd
  4541  05FE  1003               	clrc
  4542  05FF  0C5C               	rrf	??___fladd,w
  4543  0600  00DD               	movwf	??___fladd+1
  4544  0601  085D               	movf	??___fladd+1,w
  4545  0602  00D7               	movwf	___fladd@b+3
  4546  0603                     i1l1623:
  4547  0603  1FE4               	btfss	___fladd@signs,7
  4548  0604  2E06               	goto	u204_21
  4549  0605  2E07               	goto	u204_20
  4550  0606                     u204_21:
  4551  0606  2E08               	goto	i1l511
  4552  0607                     u204_20:
  4553  0607                     i1l1625:
  4554  0607  17D7               	bsf	___fladd@b+3,7
  4555  0608                     i1l511:
  4556  0608                     i1l481:
  4557  0608  0008               	return
  4558  0609                     __end_of___fladd:
  4559  007E                     btemp	set	126	;btemp
  4560  007E                     wtemp0	set	126
  4561                           
  4562                           	psect	idloc
  4563                           
  4564                           ;Config register IDLOC0 @ 0x2000
  4565                           ;	unspecified, using default values
  4566  2000                     	org	8192
  4567  2000  3FFF               	dw	16383
  4568                           
  4569                           ;Config register IDLOC1 @ 0x2001
  4570                           ;	unspecified, using default values
  4571  2001                     	org	8193
  4572  2001  3FFF               	dw	16383
  4573                           
  4574                           ;Config register IDLOC2 @ 0x2002
  4575                           ;	unspecified, using default values
  4576  2002                     	org	8194
  4577  2002  3FFF               	dw	16383
  4578                           
  4579                           ;Config register IDLOC3 @ 0x2003
  4580                           ;	unspecified, using default values
  4581  2003                     	org	8195
  4582  2003  3FFF               	dw	16383
  4583                           
  4584                           	psect	config
  4585                           
  4586                           ;Config register CONFIG1 @ 0x2007
  4587                           ;	Oscillator Selection bits
  4588                           ;	FOSC = INTRC_NOCLKOUT, INTOSCIO oscillator: I/O function on RA6/OSC2/CLKOUT pin, I/O f
      +                          unction on RA7/OSC1/CLKIN
  4589                           ;	Watchdog Timer Enable bit
  4590                           ;	WDTE = OFF, WDT disabled and can be enabled by SWDTEN bit of the WDTCON register
  4591                           ;	Power-up Timer Enable bit
  4592                           ;	PWRTE = OFF, PWRT disabled
  4593                           ;	RE3/MCLR pin function select bit
  4594                           ;	MCLRE = OFF, RE3/MCLR pin function is digital input, MCLR internally tied to VDD
  4595                           ;	Code Protection bit
  4596                           ;	CP = OFF, Program memory code protection is disabled
  4597                           ;	Data Code Protection bit
  4598                           ;	CPD = OFF, Data memory code protection is disabled
  4599                           ;	Brown Out Reset Selection bits
  4600                           ;	BOREN = OFF, BOR disabled
  4601                           ;	Internal External Switchover bit
  4602                           ;	IESO = OFF, Internal/External Switchover mode is disabled
  4603                           ;	Fail-Safe Clock Monitor Enabled bit
  4604                           ;	FCMEN = OFF, Fail-Safe Clock Monitor is disabled
  4605                           ;	Low Voltage Programming Enable bit
  4606                           ;	LVP = OFF, RB3 pin has digital I/O, HV on MCLR must be used for programming
  4607                           ;	In-Circuit Debugger Mode bit
  4608                           ;	DEBUG = 0x1, unprogrammed default
  4609  2007                     	org	8199
  4610  2007  20D4               	dw	8404
  4611                           
  4612                           ;Config register CONFIG2 @ 0x2008
  4613                           ;	Brown-out Reset Selection bit
  4614                           ;	BOR4V = BOR40V, Brown-out Reset set to 4.0V
  4615                           ;	Flash Program Memory Self Write Enable bits
  4616                           ;	WRT = OFF, Write protection off
  4617  2008                     	org	8200
  4618  2008  3FFF               	dw	16383

Data Sizes:
    Strings     0
    Constant    0
    Data        0
    BSS         5
    Persistent  0
    Stack       0

Auto Spaces:
    Space          Size  Autos    Used
    COMMON           14     14      14
    BANK0            80     79      80
    BANK1            80     18      22
    BANK3            96      0       0
    BANK2            96      0       0

Pointer List with Targets:

    None.

Critical Paths under _main in COMMON

    None.

Critical Paths under _isr in COMMON

    _map->___xxtofl
    ___fltol->___xxtofl
    ___flmul->___xxtofl
    ___fldiv->___xxtofl
    ___fladd->___xxtofl

Critical Paths under _main in BANK0

    None.

Critical Paths under _isr in BANK0

    _isr->_map
    _map->___fltol
    ___fltol->___fladd
    ___flmul->___fldiv
    ___fladd->___flmul

Critical Paths under _main in BANK1

    None.

Critical Paths under _isr in BANK1

    _isr->_map
    _map->___fltol

Critical Paths under _main in BANK3

    None.

Critical Paths under _isr in BANK3

    None.

Critical Paths under _main in BANK2

    None.

Critical Paths under _isr in BANK2

    None.

Call Graph Tables:

 ---------------------------------------------------------------------------------
 (Depth) Function   	        Calls       Base Space   Used Autos Params    Refs
 ---------------------------------------------------------------------------------
 (0) _main                                                 2     2      0       0
                                             16 BANK1      2     2      0
                              _setup
 ---------------------------------------------------------------------------------
 (1) _setup                                                0     0      0       0
 ---------------------------------------------------------------------------------
 Estimated maximum stack depth 1
 ---------------------------------------------------------------------------------
 (Depth) Function   	        Calls       Base Space   Used Autos Params    Refs
 ---------------------------------------------------------------------------------
 (2) _isr                                                  5     5      0    7645
                                             11 BANK1      5     5      0
                                _map
 ---------------------------------------------------------------------------------
 (3) _map                                                  7     1      6    7645
                                             78 BANK0      1     1      0
                                              5 BANK1      6     0      6
                            ___fladd
                            ___fldiv
                            ___flmul
                            ___fltol
                           ___xxtofl
 ---------------------------------------------------------------------------------
 (4) ___xxtofl                                            14    10      4     626
                                              0 COMMON    14    10      4
 ---------------------------------------------------------------------------------
 (4) ___fltol                                             11     7      4     305
                                             72 BANK0      6     2      4
                                              0 BANK1      5     5      0
                            ___fladd (ARG)
                            ___fldiv (ARG)
                            ___flmul (ARG)
                           ___xxtofl (ARG)
 ---------------------------------------------------------------------------------
 (4) ___flmul                                             26    18      8    2417
                                             26 BANK0     26    18      8
                          __Umul8_16
                            ___fldiv (ARG)
                           ___xxtofl (ARG)
 ---------------------------------------------------------------------------------
 (5) __Umul8_16                                            9     7      2     799
                                              0 COMMON     9     7      2
 ---------------------------------------------------------------------------------
 (4) ___fldiv                                             26    18      8    1273
                                              0 BANK0     26    18      8
                           ___xxtofl (ARG)
 ---------------------------------------------------------------------------------
 (4) ___fladd                                             20    12      8    2262
                                             52 BANK0     20    12      8
                            ___fldiv (ARG)
                            ___flmul (ARG)
                           ___xxtofl (ARG)
 ---------------------------------------------------------------------------------
 Estimated maximum stack depth 5
 ---------------------------------------------------------------------------------

 Call Graph Graphs:

 _main (ROOT)
   _setup

 _isr (ROOT)
   _map
     ___fladd
       ___fldiv (ARG)
         ___xxtofl (ARG)
       ___flmul (ARG)
         __Umul8_16
         ___fldiv (ARG)
         ___xxtofl (ARG)
       ___xxtofl (ARG)
     ___fldiv
     ___flmul
     ___fltol
       ___fladd (ARG)
       ___fldiv (ARG)
       ___flmul (ARG)
       ___xxtofl (ARG)
     ___xxtofl

 Address spaces:
Name               Size   Autos  Total    Cost      Usage
BITCOMMON            E      0       0       0        0.0%
EEDATA             100      0       0       0        0.0%
NULL                 0      0       0       0        0.0%
CODE                 0      0       0       0        0.0%
COMMON               E      E       E       1      100.0%
BITSFR0              0      0       0       1        0.0%
SFR0                 0      0       0       1        0.0%
BITSFR1              0      0       0       2        0.0%
SFR1                 0      0       0       2        0.0%
STACK                0      0       0       2        0.0%
ABS                  0      0      74       3        0.0%
BITBANK0            50      0       0       4        0.0%
BITSFR3              0      0       0       4        0.0%
SFR3                 0      0       0       4        0.0%
BANK0               50     4F      50       5      100.0%
BITSFR2              0      0       0       5        0.0%
SFR2                 0      0       0       5        0.0%
BITBANK1            50      0       0       6        0.0%
BANK1               50     12      16       7       27.5%
BITBANK3            60      0       0       8        0.0%
BANK3               60      0       0       9        0.0%
BITBANK2            60      0       0      10        0.0%
BANK2               60      0       0      11        0.0%
DATA                 0      0      74      12        0.0%


Microchip Technology PIC Macro Assembler V2.35 build 20211206165544 
Symbol Table                                                                                   Wed Apr 27 22:42:41 2022

           ___fldiv@aexp 0039             ___fldiv@bexp 0038             ___fldiv@sign 0031  
                     l74 0CE1                       l83 0D32                       l85 0D36  
                     l86 0D43      __Umul8_16@word_mpld 0076                      _PR2 0092  
                    _map 0DE0                      _isr 0E92             ___flmul@aexp 004C  
           ___flmul@bexp 004D             ___flmul@sign 0047             ___flmul@temp 0052  
           ___flmul@prod 004E             ___fltol@exp1 006D                     l2001 0D2A  
                   l2011 0D31                     l2003 0D2C                     l2005 0D2D  
                   l2007 0D2E                     l2009 0D2F                     l2041 0CA5  
                   l2051 0CC2                     l2043 0CB1                     l2045 0CB7  
                   l2037 0C9A                     l2055 0CC7                     l2047 0CBB  
                   l2039 0C9F                     l2059 0CCC                     l2085 0CD6  
                   l1961 0CED                     l1971 0D04                     l1963 0CF4  
                   l1981 0D12                     l1973 0D05                     l1965 0CFA  
                   l1957 0CE8                     ?_map 00A5                     l1991 0D1D  
                   l1983 0D15                     l1975 0D09                     l1967 0CFB  
                   l1959 0CEC                     l1993 0D21                     l1985 0D16  
                   l1977 0D0C                     l1969 0D01                     l1995 0D22  
                   l1987 0D18                     l1979 0D0F                     l1997 0D26  
                   l1989 0D1B                     l1999 0D28                     ?_isr 0070  
                   _CCPR 00B2                     u2900 0CA5                     u2901 0CA4  
                   u2850 0D36                     u2851 0D35                     i1l61 0F39  
                   i1l63 0F36                     i1l65 0F3B                     i1l89 0E91  
                   _main 0C9A                     map@x 006E                     btemp 007E  
                   start 0010          ___fldiv@new_exp 0032                    ??_map 007E  
                  ??_isr 00AB            ___fltol@sign1 006C          __end_of___fladd 0609  
                  ?_main 0070          __end_of___fldiv 07E6          __end_of___flmul 0381  
        __end_of___fltol 0DE0                    _ANSEL 0188                    i1l510 05FC  
                  i1l502 05DA                    i1l511 0608                    i1l361 0DDF  
                  i1l610 0FFF                    i1l371 0DDF                    i1l540 0757  
                  i1l524 0665                    i1l621 0FC9                    i1l526 07E5  
                  i1l622 0FD5                    i1l614 0FAD                    i1l472 048B  
                  i1l368 0DCA                    i1l608 0F68                    i1l481 0608  
                  i1l474 0462                    i1l546 07C9                    i1l570 02EC  
                  i1l468 03E4                    i1l548 07D9                    i1l564 0380  
                  i1l493 057A                    i1l583 0C87                    i1l576 0374  
                  i1l489 0556                    i1l585 0C99                    i1l499 059C  
                  _PORTA 0005                    _TRISA 0085                    _LSbit 00B4  
                  _canal 006F                    _valor 00B5                    map@x0 00A5  
                  map@x1 00A6                    map@y0 00A7                    map@y1 00A9  
                  _setup 0CE8                    pclath 000A                    status 0003  
                  wtemp0 007E          __initialization 0013             __end_of_main 0CE8  
                 ??_main 00B0                   _ADRESH 001E                   _CCPR1L 0015  
                 _CCPR2L 001B                   ?_setup 0070                   _ANSELH 0189  
                 i1l2021 0ECC                   i1l2013 0E92                   i1l2031 0F25  
                 i1l2023 0EDE                   i1l2015 0E98                   i1l2033 0F2C  
                 i1l2025 0EEB                   i1l2017 0EA3                   i1l1411 0D8E  
                 i1l1403 0D5E                   i1l2035 0F32                   i1l2027 0F06  
                 i1l2019 0EBE                   i1l1501 041A                   i1l1413 0D92  
                 i1l1421 0DB0                   i1l1405 0D83                   i1l2029 0F14  
                 i1l1503 041E                   i1l1511 042E                   i1l1431 0DD4  
                 i1l1407 0D84                   u200_20 05DF                   u200_21 05DE  
                 i1l1601 05A6                   i1l1521 0471                   i1l1513 042F  
                 i1l1505 0422                   i1l1441 0393                   i1l1433 0381  
                 i1l1409 0D8C                   i1l1611 05E4                   i1l1603 05B4  
                 i1l1531 048F                   i1l1523 0475                   i1l1515 0446  
                 i1l1507 0426                   i1l1443 0398                   i1l1451 03A8  
                 i1l1435 0388                   i1l1427 0DB7                   i1l1419 0D9A  
                 i1l1621 05F8                   i1l1613 05EC                   i1l1605 05B8  
                 i1l1541 04B8                   i1l1533 0494                   i1l1525 0476  
                 i1l1517 0466                   i1l1509 042A                   i1l1461 03C2  
                 i1l1453 03B0                   i1l1445 039D                   i1l1437 038E  
                 i1l1701 06E5                   i1l1429 0DCF                   i1l1623 0603  
                 i1l1615 05F1                   i1l1607 05D6                   i1l1551 04CC  
                 i1l1543 04BC                   i1l1527 047F                   i1l1519 046F  
                 i1l1471 03D9                   i1l1463 03C6                   i1l1455 03B5  
                 i1l1447 03A5                   i1l1439 0392                   i1l1711 0710  
                 i1l1703 06F7                   i1l1631 0616                   i1l1391 0C90  
                 i1l1383 0C74                   u201_20 05E4                   i1l1625 0607  
                 i1l1617 05F2                   u201_21 05E3                   i1l1609 05DF  
                 i1l1561 0534                   i1l1553 04D5                   i1l1545 04C5  
                 i1l1537 049D                   i1l1529 0483                   i1l1481 03F2  
                 i1l1473 03DA                   i1l1465 03C7                   i1l1457 03BB  
                 i1l1449 03A6                   i1l1721 0728                   i1l1713 0718  
                 i1l1705 06F8                   i1l1641 062D                   i1l1633 061A  
                 i1l1393 0C95                   i1l1385 0C76                   i1l1801 0070  
                 i1l1619 05F6                   i1l1563 0539                   i1l1547 04C7  
                 i1l1539 04B4                   i1l1555 04DA                   i1l1491 0406  
                 i1l1483 03F6                   i1l1467 03CC                   i1l1475 03DC  
                 i1l1459 03BC                   i1l1731 0740                   i1l1723 0731  
                 i1l1715 071A                   i1l1707 0706                   i1l1651 0643  
                 i1l1643 062E                   i1l1635 061B                   i1l1627 0609  
                 i1l1387 0C7D                   i1l1803 0072                   i1l1581 0581  
                 i1l1573 056C                   i1l1557 04F0                   i1l1565 0548  
                 i1l1549 04CB                   i1l1493 040A                   i1l1485 03FA  
                 i1l1477 03EA                   i1l1469 03D1                   i1l1741 076F  
                 i1l1733 0754                   i1l1717 0723                   i1l1725 0737  
                 i1l1709 070A                   i1l1661 065A                   i1l1653 0647  
                 i1l1637 0620                   i1l1645 0630                   i1l1629 0610  
                 i1l1389 0C81                   i1l1901 036C                   i1l1821 00E3  
                 i1l1813 008D                   i1l1805 007A                   i1l1397 0D44  
                 i1l1591 058F                   i1l1583 0583                   i1l1575 0575  
                 i1l1567 055E                   i1l1559 052E                   i1l1495 040E  
                 i1l1487 03FE                   i1l1479 03EE                   i1l1751 07AD  
                 i1l1743 0773                   i1l1727 073B                   i1l1719 0727  
                 i1l1671 067D                   i1l1663 065B                   i1l1655 0648  
                 i1l1647 0638                   i1l1639 0625                   i1l1903 036D  
                 i1l1831 0160                   i1l1823 010F                   i1l1815 009D  
                 i1l1807 007F                   i1l1399 0D55                   i1l1911 0F4C  
                 u202_20 05F1                   u210_20 0652                   u202_21 05F0  
                 i1l1593 0593                   i1l1585 0588                   i1l1577 0579  
                 i1l1569 0563                   i1l1497 0412                   i1l1489 0402  
                 i1l1761 07D3                   i1l1753 07BC                   i1l1745 078C  
                 i1l1737 075C                   i1l1729 073C                   i1l1681 0694  
                 u210_21 0651                   i1l1657 064D                   i1l1665 065D  
                 i1l1649 063D                   i1l1905 0378                   i1l1841 01E0  
                 i1l1833 017D                   i1l1825 012B                   i1l1817 00AA  
                 i1l1809 0084                   i1l1921 0F79                   i1l1913 0F50  
                 i1l1595 0599                   i1l1579 057E                   i1l1587 058A  
                 i1l1499 0416                   i1l1763 07D5                   i1l1755 07C0  
                 i1l1739 0761                   i1l1747 0792                   i1l1691 06C0  
                 i1l1683 06A6                   i1l1667 066D                   i1l1675 0686  
                 i1l1659 0652                   i1l1851 0298                   i1l1843 020D  
                 i1l1835 018D                   i1l1827 0147                   i1l1819 00C7  
                 i1l1771 0027                   i1l1931 0FA4                   i1l1923 0F7E  
                 i1l1915 0F60                   i1l1589 058E                   i1l1757 07C8  
                 i1l1749 079F                   i1l1693 06C5                   i1l1685 06AE  
                 i1l1677 068B                   i1l1669 0679                   i1l1861 02BD  
                 i1l1853 02A1                   i1l1845 021D                   i1l1837 01AA  
                 i1l1829 0150                   i1l1781 003C                   i1l1773 002D  
                 i1l1941 0FD7                   i1l1933 0FB4                   i1l1925 0F8B  
                 i1l1917 0F70                   i1l1909 0F47                   i1l1599 05A1  
                 i1l1759 07CF                   i1l1695 06D7                   i1l1687 06B6  
                 i1l1871 02D5                   i1l1863 02C6                   i1l1855 02AF  
                 i1l1847 024A                   i1l1839 01C3                   i1l1791 0059  
                 i1l1783 0044                   i1l1775 0031                   i1l1943 0FED  
                 i1l1935 0FBF                   i1l1927 0F92                   u203_20 05F6  
                 u211_20 066D                   u203_21 05F5                   i1l1697 06DB  
                 i1l1689 06BE                   u211_21 066C                   i1l1881 0304  
                 i1l1873 02E9                   i1l1857 02B8                   i1l1865 02CC  
                 i1l1849 0270                   i1l1793 005D                   i1l1785 0046  
                 i1l1777 0032                   i1l1769 0020                   i1l1945 0FF2  
                 i1l1937 0FC3                   i1l1929 0F96                   i1l1953 0DE3  
                 i1l1699 06DC                   i1l1891 033F                   i1l1883 0308  
                 i1l1867 02D0                   i1l1859 02BC                   i1l1795 005E  
                 i1l1787 004E                   i1l1779 0037                   i1l1947 0FF6  
                 i1l1939 0FCD                   i1l1893 034E                   i1l1885 0321  
                 i1l1877 02F1                   i1l1869 02D1                   i1l1797 0063  
                 i1l1789 0053                   i1l1949 0FF7                   i1l1895 0358  
                 i1l1879 02F6                   i1l1887 0327                   i1l1799 0068  
                 u204_20 0607                   u220_20 0718                   u212_20 068B  
                 u204_21 0606                   u220_21 0717                   u212_21 068A  
                 i1l1897 035A                   i1l1889 0334                   i1l1899 0368  
                 u213_20 06C5                   u205_20 061A                   u213_21 06C4  
                 u205_21 0619                   u221_25 071C                   u230_20 0782  
                 u222_20 0727                   u206_20 0620                   u150_20 0D7A  
                 u222_21 0726                   u206_21 061F                   u230_25 077D  
                 u214_25 06C7                   u150_25 0D75                   u231_20 079F  
                 u207_20 0625                   u151_20 0D92                   u231_21 079E  
                 u207_21 0624                   u151_21 0D91                   u231_25 079B  
                 u223_25 072A                   u215_25 06D0                   u160_20 0398  
                 u232_20 07BC                   u224_20 073B                   u216_20 06DB  
                 u208_20 0647                   u240_20 007F                   u152_20 0D99  
                 u160_21 0397                   u232_21 07BB                   u224_21 073A  
                 u216_21 06DA                   u208_21 0646                   u240_21 007E  
                 u152_21 0D98                   u232_25 07B8                   u161_20 039D  
                 u233_20 07D3                   u225_20 0740                   u209_20 064D  
                 u241_20 0084                   u161_21 039C                   u233_21 07D2  
                 u225_21 073F                   u209_21 064C                   u241_21 0083  
                 u217_25 06DE                   u153_25 0D9B                   u170_20 0452  
                 u162_20 03BB                   u226_20 0754                   u218_20 06F7  
                 u146_20 0C81                   u234_20 0031                   u154_20 0DAF  
                 u162_21 03BA                   u226_21 0753                   u218_21 06F6  
                 u146_21 0C80                   u250_21 01D2                   u242_21 00D5  
                 u234_21 0030                   u154_21 0DAE                   u250_22 01D9  
                 u242_22 00DC                   u250_23 01E0                   u242_23 00E3  
                 u218_25 06F3                   u171_20 0466                   u163_20 03C6  
                 u227_20 075B                   u219_20 0710                   u235_20 0037  
                 u155_20 0DB6                   u171_21 0465                   u163_21 03C5  
                 u227_21 075A                   u219_21 070F                   u251_21 01FF  
                 u243_21 00F1                   u235_21 0036                   u155_21 0DB5  
                 u251_22 0206                   u243_22 00F8                   u251_23 020D  
                 u243_23 00FF                   u147_25 0C88                   u180_20 04CB  
                 u172_20 0475                   u164_20 03CC                   u228_20 0761  
                 u148_20 0C95                   u236_20 003C                   u180_21 04CA  
                 u172_21 0474                   u164_21 03CB                   u228_21 0760  
                 u148_21 0C94                   u252_21 022C                   u244_21 011D  
                 u236_21 003B                   u252_22 0233                   u244_22 0124  
                 u252_23 023A                   u244_23 012B                   u260_25 02BF  
                 u156_25 0DBB                   u165_20 03D1                   u229_20 0773  
                 u261_20 02D0                   u253_20 0256                   u237_20 005D  
                 u157_20 0DCF                   u149_20 0D55                   u165_21 03D0  
                 u229_21 0772                   u261_21 02CF                   u245_21 0139  
                 u237_21 005C                   u157_21 0DCE                   u149_21 0D54  
                 u245_22 0140                   u245_23 0147                   u181_25 04CE  
                 u173_25 0478                   u253_25 0251                   u190_20 057E  
                 u182_20 04F0                   u174_20 048B                   u166_20 03EA  
                 u270_20 036C                   u262_20 02D5                   u238_20 0063  
                 u158_20 0DD4                   u190_21 057D                   u182_21 04EF  
                 u174_21 048A                   u166_21 03E9                   u270_21 036B  
                 u262_21 02D4                   u254_21 0262                   u238_21 0062  
                 u158_21 0DD3                   u254_22 0269                   u182_23 04EC  
                 u254_23 0270                   u246_25 0149                   u191_20 0588  
                 u175_20 048F                   u167_20 03EE                   u159_20 0392  
                 u263_20 02E9                   u255_20 027E                   u239_20 0068  
                 u271_20 0F4C                   u191_21 0587                   u183_21 0507  
                 u175_21 048E                   u167_21 03ED                   u159_21 0391  
                 u263_21 02E8                   u247_21 016F                   u239_21 0067  
                 u271_21 0F4B                   u183_22 0508                   u247_22 0176  
                 u183_23 050D                   u247_23 017D                   u183_24 050E  
                 u183_25 0513                   u255_25 0279                   u183_26 0514  
                 u192_20 058E                   u184_20 051B                   u176_20 0494  
                 u168_20 0446                   u264_20 02F0                   u280_20 0FC9  
                 u272_20 0F50                   u192_21 058D                   u184_21 051C  
                 u176_21 0493                   u168_21 0445                   u264_21 02EF  
                 u256_21 028A                   u248_21 019C                   u280_21 0FC8  
                 u272_21 0F4F                   u184_22 0521                   u256_22 0291  
                 u248_22 01A3                   u184_23 0522                   u256_23 0298  
                 u248_23 01AA                   u168_25 0442                   u193_20 0593  
                 u185_20 0539                   u169_20 0451                   u265_20 02F6  
                 u281_20 0FCD                   u273_20 0F70                   u193_21 0592  
                 u185_21 0538                   u177_21 04A6                   u169_21 044F  
                 u265_21 02F5                   u281_21 0FCC                   u273_21 0F6F  
                 u177_22 04AD                   u177_23 04B4                   u257_25 029A  
                 u249_25 01AC                   u194_20 0599                   u186_20 055E  
                 u178_20 04B8                   u266_20 0308                   u282_20 0FE2  
                 u194_21 0598                   u186_21 055D                   u178_21 04B7  
                 u266_21 0307                   u258_25 02B1                   u282_25 0FDD  
                 u274_25 0F83                   u195_20 05A0                   u187_20 0563  
                 u179_20 04BC                   u267_20 0317                   u259_20 02BC  
                 u283_20 0FF2                   u275_20 0F91                   u195_21 059F  
                 u187_21 0562                   u179_21 04BB                   u259_21 02BB  
                 u283_21 0FF1                   u275_21 0F90                   u267_25 0312  
                 u196_20 05A6                   u268_20 0334                   u284_20 0FF6  
                 u196_21 05A5                   u268_21 0333                   u284_21 0FF5  
                 u188_25 056E                   u268_25 0330                   u276_25 0FA5  
                 u197_20 05B8                   u189_20 0579                   u269_20 034E  
                 u277_20 0FB3                   u197_21 05B7                   u189_21 0578  
                 u269_21 034D                   u277_21 0FB2                   u269_25 034A  
                 u198_20 05C7                   u286_20 0E98                   u286_21 0E97  
                 u198_25 05C2                   u278_25 0FB8                   u199_20 05D6  
                 u279_20 0FC3                   u287_20 0EA3                   u199_21 05D5  
                 u279_21 0FC2                   u287_21 0EA2                   u288_20 0EEB  
                 u288_21 0EEA                   u289_20 0F32                   u289_21 0F31  
       __end_of___xxtofl 1000                ??___fladd 005C                ??___fldiv 0028  
              ??___flmul 0042                ??___fltol 00A0                   saved_w 007E  
           ___xxtofl@arg 007A             ___xxtofl@exp 0079             ___xxtofl@val 0070  
__end_of__initialization 001C               ___fltol@f1 0068           __pcstackCOMMON 0070  
          __end_of_setup 0D44                  ??_setup 00B0               __pbssBANK0 006F  
             __pbssBANK1 00B2        __end_of__Umul8_16 0C9A               __pmaintext 0C9A  
             __pintentry 0004                  _CCP1CON 0017                  _CCP2CON 001D  
              ?___xxtofl 0070                  ___fladd 0381                  ___fldiv 0609  
                ___flmul 0020                  ___fltol 0D44                  __ptext1 0CE8  
                __ptext2 0E92                  __ptext3 0DE0                  __ptext4 0F46  
                __ptext5 0D44                  __ptext6 0020                  __ptext7 0C73  
                __ptext8 0609                  __ptext9 0381                _T2CONbits 0012  
             ??___xxtofl 0074     end_of_initialization 001C              ___fladd@grs 0067  
          ___xxtofl@sign 0078                _TRISCbits 0087              ___fldiv@grs 0034  
            ___fldiv@rem 002D              ___flmul@grs 0048              _CCP1CONbits 0017  
            _CCP2CONbits 001D      start_initialization 0013              __end_of_map 0E92  
            __end_of_isr 0F46                __Umul8_16 0C73                ___fladd@a 0058  
              ___fladd@b 0054                ___fldiv@a 0020                ___fldiv@b 0024  
              ___flmul@a 003E                ___flmul@b 003A                ___latbits 0002  
          __pcstackBANK0 0020            __pcstackBANK1 00A0                 ?___fladd 0054  
               ?___fldiv 0020                 ?___flmul 003A                 ?___fltol 0068  
             ?__Umul8_16 0070        interrupt_function 0004                 _PIE1bits 008C  
               _PIR1bits 000C               _ADCON0bits 001F               _ADCON1bits 009F  
            ??__Umul8_16 0072                 ___xxtofl 0F46               _INTCONbits 000B  
               intlevel1 0000               _OSCCONbits 008F   __Umul8_16@multiplicand 0070  
          ___fladd@signs 0064             ___fladd@aexp 0065             ___fladd@bexp 0066  
   __Umul8_16@multiplier 0078        __Umul8_16@product 0074  
